
pacman.elf:     file format elf32-littlenios2
pacman.elf
architecture: nios2:r1, flags 0x00000112:
EXEC_P, HAS_SYMS, D_PAGED
start address 0x04000230

Program Header:
    LOAD off    0x00001000 vaddr 0x04000000 paddr 0x04000000 align 2**12
         filesz 0x00000020 memsz 0x00000020 flags r-x
    LOAD off    0x00001020 vaddr 0x04000020 paddr 0x04000020 align 2**12
         filesz 0x00014730 memsz 0x00014730 flags r-x
    LOAD off    0x00015750 vaddr 0x04014750 paddr 0x040162a4 align 2**12
         filesz 0x00001b54 memsz 0x00001b54 flags rw-
    LOAD off    0x00017df8 vaddr 0x04017df8 paddr 0x04017df8 align 2**12
         filesz 0x00000000 memsz 0x000015c0 flags rw-

Sections:
Idx Name          Size      VMA       LMA       File off  Algn
  0 .entry        00000020  04000000  04000000  00001000  2**5
                  CONTENTS, ALLOC, LOAD, READONLY, CODE
  1 .exceptions   00000210  04000020  04000020  00001020  2**2
                  CONTENTS, ALLOC, LOAD, READONLY, CODE
  2 .text         00013fbc  04000230  04000230  00001230  2**2
                  CONTENTS, ALLOC, LOAD, READONLY, CODE
  3 .rodata       00000564  040141ec  040141ec  000151ec  2**2
                  CONTENTS, ALLOC, LOAD, READONLY, DATA
  4 .rwdata       00001b54  04014750  040162a4  00015750  2**2
                  CONTENTS, ALLOC, LOAD, DATA, SMALL_DATA
  5 .bss          000015c0  04017df8  04017df8  00017df8  2**2
                  ALLOC, SMALL_DATA
  6 .onchip_memory 00000000  00000000  00000000  000172a4  2**0
                  CONTENTS
  7 .sdram        00000000  040193b8  040193b8  000172a4  2**0
                  CONTENTS
  8 .comment      00000023  00000000  00000000  000172a4  2**0
                  CONTENTS, READONLY
  9 .debug_aranges 000010b0  00000000  00000000  000172c8  2**3
                  CONTENTS, READONLY, DEBUGGING
 10 .debug_info   00028d94  00000000  00000000  00018378  2**0
                  CONTENTS, READONLY, DEBUGGING
 11 .debug_abbrev 0000a53e  00000000  00000000  0004110c  2**0
                  CONTENTS, READONLY, DEBUGGING
 12 .debug_line   0000cd74  00000000  00000000  0004b64a  2**0
                  CONTENTS, READONLY, DEBUGGING
 13 .debug_frame  00002dd4  00000000  00000000  000583c0  2**2
                  CONTENTS, READONLY, DEBUGGING
 14 .debug_str    00004655  00000000  00000000  0005b194  2**0
                  CONTENTS, READONLY, DEBUGGING
 15 .debug_loc    00017d3c  00000000  00000000  0005f7e9  2**0
                  CONTENTS, READONLY, DEBUGGING
 16 .debug_alt_sim_info 00000040  00000000  00000000  00077528  2**2
                  CONTENTS, READONLY, DEBUGGING
 17 .debug_ranges 000019b0  00000000  00000000  00077568  2**3
                  CONTENTS, READONLY, DEBUGGING
 18 .thread_model 00000003  00000000  00000000  0007cd7a  2**0
                  CONTENTS, READONLY
 19 .cpu          0000000f  00000000  00000000  0007cd7d  2**0
                  CONTENTS, READONLY
 20 .qsys         00000001  00000000  00000000  0007cd8c  2**0
                  CONTENTS, READONLY
 21 .simulation_enabled 00000001  00000000  00000000  0007cd8d  2**0
                  CONTENTS, READONLY
 22 .sysid_hash   00000004  00000000  00000000  0007cd8e  2**0
                  CONTENTS, READONLY
 23 .sysid_base   00000004  00000000  00000000  0007cd92  2**0
                  CONTENTS, READONLY
 24 .sysid_time   00000004  00000000  00000000  0007cd96  2**0
                  CONTENTS, READONLY
 25 .stderr_dev   00000009  00000000  00000000  0007cd9a  2**0
                  CONTENTS, READONLY
 26 .stdin_dev    00000009  00000000  00000000  0007cda3  2**0
                  CONTENTS, READONLY
 27 .stdout_dev   00000009  00000000  00000000  0007cdac  2**0
                  CONTENTS, READONLY
 28 .sopc_system_name 0000000a  00000000  00000000  0007cdb5  2**0
                  CONTENTS, READONLY
 29 .quartus_project_dir 00000010  00000000  00000000  0007cdbf  2**0
                  CONTENTS, READONLY
 30 .jdi          0000560b  00000000  00000000  0007cdcf  2**0
                  CONTENTS, READONLY
 31 .sopcinfo     0008c49a  00000000  00000000  000823da  2**0
                  CONTENTS, READONLY
SYMBOL TABLE:
04000000 l    d  .entry	00000000 .entry
04000020 l    d  .exceptions	00000000 .exceptions
04000230 l    d  .text	00000000 .text
040141ec l    d  .rodata	00000000 .rodata
04014750 l    d  .rwdata	00000000 .rwdata
04017df8 l    d  .bss	00000000 .bss
00000000 l    d  .onchip_memory	00000000 .onchip_memory
040193b8 l    d  .sdram	00000000 .sdram
00000000 l    d  .comment	00000000 .comment
00000000 l    d  .debug_aranges	00000000 .debug_aranges
00000000 l    d  .debug_info	00000000 .debug_info
00000000 l    d  .debug_abbrev	00000000 .debug_abbrev
00000000 l    d  .debug_line	00000000 .debug_line
00000000 l    d  .debug_frame	00000000 .debug_frame
00000000 l    d  .debug_str	00000000 .debug_str
00000000 l    d  .debug_loc	00000000 .debug_loc
00000000 l    d  .debug_alt_sim_info	00000000 .debug_alt_sim_info
00000000 l    d  .debug_ranges	00000000 .debug_ranges
00000000 l    df *ABS*	00000000 ../pacman_bsp//obj/HAL/src/crt0.o
04000268 l       .text	00000000 alt_after_alt_main
00000000 l    df *ABS*	00000000 alt_irq_handler.c
00000000 l    df *ABS*	00000000 alt_instruction_exception_entry.c
00000000 l    df *ABS*	00000000 main.c
0401622c l     O .rwdata	00000001 addr
00000000 l    df *ABS*	00000000 pacman.c
00000000 l    df *ABS*	00000000 spu.c
00000000 l    df *ABS*	00000000 HID.c
00000000 l    df *ABS*	00000000 MAX3421E.c
00000000 l    df *ABS*	00000000 transfer.c
04017e10 l     O .bss	00000004 usb_delay.2608
04017e14 l     O .bss	00000001 tmp_addr.2609
00000000 l    df *ABS*	00000000 lib2-divmod.c
00000000 l    df *ABS*	00000000 lib2-mul.c
00000000 l    df *ABS*	00000000 memset.c
00000000 l    df *ABS*	00000000 printf.c
00000000 l    df *ABS*	00000000 putchar.c
00000000 l    df *ABS*	00000000 puts.c
00000000 l    df *ABS*	00000000 rand.c
00000000 l    df *ABS*	00000000 strlen.c
00000000 l    df *ABS*	00000000 time.c
00000000 l    df *ABS*	00000000 vfprintf.c
0401449e l     O .rodata	00000010 zeroes.4404
04006a90 l     F .text	000000bc __sbprintf
040144ae l     O .rodata	00000010 blanks.4403
00000000 l    df *ABS*	00000000 wsetup.c
00000000 l    df *ABS*	00000000 dtoa.c
04006ca0 l     F .text	00000228 quorem
00000000 l    df *ABS*	00000000 fflush.c
00000000 l    df *ABS*	00000000 findfp.c
040087f8 l     F .text	00000008 __fp_unlock
0400880c l     F .text	0000019c __sinit.part.1
040089a8 l     F .text	00000008 __fp_lock
00000000 l    df *ABS*	00000000 mallocr.c
00000000 l    df *ABS*	00000000 fvwrite.c
00000000 l    df *ABS*	00000000 fwalk.c
00000000 l    df *ABS*	00000000 gettimeofdayr.c
00000000 l    df *ABS*	00000000 impure.c
04014780 l     O .rwdata	00000424 impure_data
00000000 l    df *ABS*	00000000 int_errno.c
00000000 l    df *ABS*	00000000 locale.c
04014bc4 l     O .rwdata	00000020 lc_ctype_charset
04014ba4 l     O .rwdata	00000020 lc_message_charset
04014be4 l     O .rwdata	00000038 lconv
00000000 l    df *ABS*	00000000 makebuf.c
00000000 l    df *ABS*	00000000 mallocr.c
00000000 l    df *ABS*	00000000 memchr.c
00000000 l    df *ABS*	00000000 memcpy.c
00000000 l    df *ABS*	00000000 memmove.c
00000000 l    df *ABS*	00000000 mprec.c
040144e0 l     O .rodata	0000000c p05.2768
00000000 l    df *ABS*	00000000 putc.c
00000000 l    df *ABS*	00000000 mallocr.c
00000000 l    df *ABS*	00000000 s_fpclassify.c
00000000 l    df *ABS*	00000000 sbrkr.c
00000000 l    df *ABS*	00000000 stdio.c
00000000 l    df *ABS*	00000000 strcmp.c
00000000 l    df *ABS*	00000000 vfprintf.c
0400bf18 l     F .text	000000fc __sprint_r.part.0
04014604 l     O .rodata	00000010 zeroes.4349
0400d554 l     F .text	000000bc __sbprintf
04014614 l     O .rodata	00000010 blanks.4348
00000000 l    df *ABS*	00000000 wbuf.c
00000000 l    df *ABS*	00000000 writer.c
00000000 l    df *ABS*	00000000 closer.c
00000000 l    df *ABS*	00000000 mallocr.c
00000000 l    df *ABS*	00000000 fclose.c
00000000 l    df *ABS*	00000000 fputwc.c
00000000 l    df *ABS*	00000000 fstatr.c
00000000 l    df *ABS*	00000000 isattyr.c
00000000 l    df *ABS*	00000000 lseekr.c
00000000 l    df *ABS*	00000000 readr.c
00000000 l    df *ABS*	00000000 wcrtomb.c
00000000 l    df *ABS*	00000000 wctomb_r.c
00000000 l    df *ABS*	00000000 libgcc2.c
00000000 l    df *ABS*	00000000 libgcc2.c
00000000 l    df *ABS*	00000000 libgcc2.c
00000000 l    df *ABS*	00000000 adddf3.c
00000000 l    df *ABS*	00000000 divdf3.c
00000000 l    df *ABS*	00000000 eqdf2.c
00000000 l    df *ABS*	00000000 gedf2.c
00000000 l    df *ABS*	00000000 ledf2.c
00000000 l    df *ABS*	00000000 muldf3.c
00000000 l    df *ABS*	00000000 subdf3.c
00000000 l    df *ABS*	00000000 fixdfsi.c
00000000 l    df *ABS*	00000000 floatsidf.c
00000000 l    df *ABS*	00000000 floatunsidf.c
00000000 l    df *ABS*	00000000 libgcc2.c
00000000 l    df *ABS*	00000000 libgcc2.c
00000000 l    df *ABS*	00000000 alt_close.c
040114cc l     F .text	0000003c alt_get_errno
00000000 l    df *ABS*	00000000 alt_dev.c
040115e0 l     F .text	0000002c alt_dev_null_write
00000000 l    df *ABS*	00000000 alt_errno.c
00000000 l    df *ABS*	00000000 alt_fstat.c
0401160c l     F .text	0000003c alt_get_errno
00000000 l    df *ABS*	00000000 alt_gettod.c
00000000 l    df *ABS*	00000000 alt_isatty.c
040118f4 l     F .text	0000003c alt_get_errno
00000000 l    df *ABS*	00000000 alt_load.c
040119dc l     F .text	00000068 alt_load_section
00000000 l    df *ABS*	00000000 alt_lseek.c
04011ac8 l     F .text	0000003c alt_get_errno
00000000 l    df *ABS*	00000000 alt_main.c
00000000 l    df *ABS*	00000000 alt_malloc_lock.c
00000000 l    df *ABS*	00000000 alt_read.c
04011ca4 l     F .text	0000003c alt_get_errno
00000000 l    df *ABS*	00000000 alt_release_fd.c
00000000 l    df *ABS*	00000000 alt_sbrk.c
04016294 l     O .rwdata	00000004 heap_end
00000000 l    df *ABS*	00000000 alt_tick.c
00000000 l    df *ABS*	00000000 alt_usleep.c
00000000 l    df *ABS*	00000000 alt_write.c
040120ec l     F .text	0000003c alt_get_errno
00000000 l    df *ABS*	00000000 alt_sys_init.c
04012228 l     F .text	00000034 alt_dev_reg
040151cc l     O .rwdata	00001060 jtag_uart
00000000 l    df *ABS*	00000000 altera_avalon_jtag_uart_fd.c
00000000 l    df *ABS*	00000000 altera_avalon_jtag_uart_init.c
04012520 l     F .text	0000020c altera_avalon_jtag_uart_irq
0401272c l     F .text	000000a0 altera_avalon_jtag_uart_timeout
00000000 l    df *ABS*	00000000 altera_avalon_jtag_uart_ioctl.c
00000000 l    df *ABS*	00000000 altera_avalon_jtag_uart_read.c
00000000 l    df *ABS*	00000000 altera_avalon_jtag_uart_write.c
00000000 l    df *ABS*	00000000 altera_avalon_spi.c
00000000 l    df *ABS*	00000000 altera_avalon_timer_sc.c
04012f60 l     F .text	00000078 alt_avalon_timer_sc_irq
00000000 l    df *ABS*	00000000 alt_alarm_start.c
00000000 l    df *ABS*	00000000 alt_busy_sleep.c
00000000 l    df *ABS*	00000000 alt_dcache_flush_all.c
00000000 l    df *ABS*	00000000 alt_dev_llist_insert.c
040132f8 l     F .text	0000003c alt_get_errno
00000000 l    df *ABS*	00000000 alt_do_ctors.c
00000000 l    df *ABS*	00000000 alt_do_dtors.c
00000000 l    df *ABS*	00000000 alt_icache_flush_all.c
00000000 l    df *ABS*	00000000 alt_iic.c
00000000 l    df *ABS*	00000000 alt_iic_isr_register.c
00000000 l    df *ABS*	00000000 alt_io_redirect.c
04013758 l     F .text	000000e4 alt_open_fd
00000000 l    df *ABS*	00000000 alt_irq_vars.c
00000000 l    df *ABS*	00000000 alt_open.c
040138b8 l     F .text	0000003c alt_get_errno
040138f4 l     F .text	000000ec alt_file_locked
00000000 l    df *ABS*	00000000 altera_nios2_gen2_irq.c
00000000 l    df *ABS*	00000000 alt_find_dev.c
00000000 l    df *ABS*	00000000 alt_find_file.c
00000000 l    df *ABS*	00000000 alt_get_fd.c
00000000 l    df *ABS*	00000000 atexit.c
00000000 l    df *ABS*	00000000 exit.c
00000000 l    df *ABS*	00000000 memcmp.c
00000000 l    df *ABS*	00000000 __atexit.c
00000000 l    df *ABS*	00000000 __call_atexit.c
00000000 l    df *ABS*	00000000 alt_exit.c
04017e5c g     O .bss	00000004 alt_instruction_exception_handler
04004548 g     F .text	00000018 putchar
0400b3f4 g     F .text	00000074 _mprec_log10
0400b4e0 g     F .text	0000008c __any_on
0400dc60 g     F .text	00000054 _isatty_r
040144ec g     O .rodata	00000028 __mprec_tinytens
04011be0 g     F .text	0000007c alt_main
04016258 g     O .rwdata	00000008 ctrl_xfers
04004560 g     F .text	000000c0 _puts_r
040192b8 g     O .bss	00000100 alt_irq
0400dcb4 g     F .text	00000060 _lseek_r
04003984 g     F .text	00000644 USB_Task
040162a4 g       *ABS*	00000000 __flash_rwdata_start
0400fea4 g     F .text	00000088 .hidden __eqdf2
04017eb0 g     O .bss	000012c0 map
0400962c g     F .text	0000005c _gettimeofday_r
040193b8 g       *ABS*	00000000 __alt_heap_start
04004504 g     F .text	0000003c printf
0400dd74 g     F .text	0000009c _wcrtomb_r
04002a88 g     F .text	00000088 kbdPoll
0400bdd8 g     F .text	0000005c __sseek
04008b58 g     F .text	00000010 __sinit
04000874 g     F .text	00000414 pacman_task
0400d610 g     F .text	00000140 __swbuf_r
0400026c g     F .text	00000034 spu_control
04009688 g     F .text	0000007c _setlocale_r
040089b0 g     F .text	00000078 __sfmoreglue
04011c80 g     F .text	00000024 __malloc_unlock
040002a0 g     F .text	000001f0 GetDriverandReport
0400a358 g     F .text	0000015c memmove
04008b40 g     F .text	00000018 _cleanup
0400a4b4 g     F .text	000000a8 _Balloc
04002bdc g     F .text	0000008c MAXreg_wr
04014750 g     O .rwdata	00000030 ClientDriverTable
040020a8 g     F .text	0000005c spu_set_sprite
0400ff2c g     F .text	000000dc .hidden __gtdf2
04013b3c g     F .text	00000024 altera_nios2_gen2_irq_init
04003fc8 g     F .text	0000002c MSDProbe
04000000 g     F .entry	0000000c __reset
04003484 g     F .text	000000e8 XferCtrlData
04000020 g       *ABS*	00000000 __flash_exceptions_start
04017e60 g     O .bss	00000010 hid_ep
0400dc04 g     F .text	0000005c _fstat_r
04017e18 g     O .bss	00000004 errno
0400bd54 g     F .text	00000008 __seofread
04017e48 g     O .bss	00000004 alt_argv
0401e22c g       *ABS*	00000000 _gp
040120bc g     F .text	00000030 usleep
04002dd0 g     F .text	00000080 MAXreg_rd
04001d04 g     F .text	000000b0 random_map
04001354 g     F .text	00000058 get_food
0401504c g     O .rwdata	00000180 alt_fd_list
040029c0 g     F .text	00000040 HID_init
04004540 g     F .text	00000008 _putchar_r
04013b60 g     F .text	00000090 alt_find_dev
0400a210 g     F .text	00000148 memcpy
04008800 g     F .text	0000000c _cleanup_r
040112e4 g     F .text	000000dc .hidden __floatsidf
0401383c g     F .text	0000007c alt_io_redirect
04010008 g     F .text	000000f4 .hidden __ltdf2
040141ec g       *ABS*	00000000 __DTOR_END__
04004620 g     F .text	00000014 puts
04013dbc g     F .text	0000009c alt_exception_cause_generated_bad_addr
0400bc38 g     F .text	00000074 __fpclassifyd
0400b350 g     F .text	000000a4 __ratio
0400d538 g     F .text	0000001c __vfiprintf_internal
040011e4 g     F .text	00000028 sprite_type
04012924 g     F .text	0000021c altera_avalon_jtag_uart_read
040044d4 g     F .text	00000030 _printf_r
040042c8 g     F .text	00000064 .hidden __udivsi3
04011930 g     F .text	000000ac isatty
040013ac g     F .text	000000d0 get_sprite
0401453c g     O .rodata	000000c8 __mprec_tens
04009704 g     F .text	0000000c __locale_charset
04017e34 g     O .bss	00000008 alt_timezone
04017e30 g     O .bss	00000004 __malloc_top_pad
04016260 g     O .rwdata	00000001 usb_task_state
0401626c g     O .rwdata	00000004 __mb_cur_max
04009734 g     F .text	0000000c _localeconv_r
0400a8e8 g     F .text	0000003c __i2b
04008fdc g     F .text	000004c8 __sfvwrite_r
0400bcac g     F .text	00000054 _sbrk_r
0400dd14 g     F .text	00000060 _read_r
04003138 g     F .text	00000094 MAX3421E_init
0400078c g     F .text	00000038 setKeycode
0401628c g     O .rwdata	00000004 alt_max_fd
0400d8f8 g     F .text	000000f0 _fclose_r
040087c8 g     F .text	00000030 fflush
04017e2c g     O .bss	00000004 __malloc_max_sbrked_mem
0400ec28 g     F .text	000008ac .hidden __adddf3
0400b0f8 g     F .text	0000010c __b2d
0400e664 g     F .text	000005c4 .hidden __umoddi3
04011b04 g     F .text	000000dc lseek
04016264 g     O .rwdata	00000004 _global_impure_ptr
0400b6d4 g     F .text	00000564 _realloc_r
040193b8 g       *ABS*	00000000 __bss_end
04013668 g     F .text	000000f0 alt_iic_isr_register
04011fb4 g     F .text	00000108 alt_tick
0400e068 g     F .text	000005fc .hidden __udivdi3
0400db60 g     F .text	00000024 _fputwc_r
04014514 g     O .rodata	00000028 __mprec_bigtens
0400a6cc g     F .text	00000104 __s2b
040113c0 g     F .text	000000a8 .hidden __floatunsidf
0400ae38 g     F .text	00000060 __mcmp
04008b78 g     F .text	00000018 __fp_lock_all
0401361c g     F .text	0000004c alt_ic_irq_enabled
04011f18 g     F .text	0000009c alt_alarm_stop
04017e58 g     O .bss	00000004 alt_irq_active
04004090 g     F .text	0000002c DummyProbe
040000fc g     F .exceptions	000000d4 alt_irq_handler
04015024 g     O .rwdata	00000028 alt_dev_null
04002a00 g     F .text	00000088 mousePoll
04001db4 g     F .text	000002f4 test_map
04002f8c g     F .text	00000024 Vbus_power
040132d8 g     F .text	00000020 alt_dcache_flush_all
0400a7d0 g     F .text	00000068 __hi0bits
04011264 g     F .text	00000080 .hidden __fixdfsi
040162a4 g       *ABS*	00000000 __ram_rwdata_end
00000000 g       *ABS*	00000000 __alt_mem_onchip_memory
04016284 g     O .rwdata	00000008 alt_dev_list
04012128 g     F .text	00000100 write
0400b56c g     F .text	000000a0 _putc_r
04014750 g       *ABS*	00000000 __ram_rodata_end
04017e15 g     O .bss	00000001 usb_error
04011648 g     F .text	000000b8 fstat
04010008 g     F .text	000000f4 .hidden __ledf2
0400abb0 g     F .text	00000140 __pow5mult
0400c02c g     F .text	0000150c ___vfiprintf_internal_r
04017e24 g     O .bss	00000004 __nlocale_changed
0400432c g     F .text	00000058 .hidden __umodsi3
040193b8 g       *ABS*	00000000 end
04001910 g     F .text	000003f4 random_walls
04012460 g     F .text	000000c0 altera_avalon_jtag_uart_init
040001d0 g     F .exceptions	00000060 alt_instruction_exception_entry
040035e0 g     F .text	0000017c XferDispatchPkt
040141ec g       *ABS*	00000000 __CTOR_LIST__
08000000 g       *ABS*	00000000 __alt_stack_pointer
04012fd8 g     F .text	0000007c alt_avalon_timer_sc_init
04011468 g     F .text	00000064 .hidden __clzsi2
04012b40 g     F .text	00000224 altera_avalon_jtag_uart_write
04008b68 g     F .text	00000004 __sfp_lock_acquire
0400a12c g     F .text	000000e4 memchr
04004798 g     F .text	000022dc ___vfprintf_internal_r
04003304 g     F .text	00000034 MaxGpxHandler
04008ccc g     F .text	00000310 _free_r
04009710 g     F .text	00000010 __locale_mb_cur_max
04014038 g     F .text	00000180 __call_exitprocs
04017e20 g     O .bss	00000004 __mlocale_changed
04016270 g     O .rwdata	00000004 __malloc_sbrk_base
04000230 g     F .text	0000003c _start
04017e50 g     O .bss	00000004 _alt_tick_rate
04002e50 g     F .text	00000094 MAXbytes_rd
0400464c g     F .text	00000064 rand
0400acf0 g     F .text	00000148 __lshift
04012d64 g     F .text	000001fc alt_avalon_spi_command
04017e54 g     O .bss	00000004 _alt_nticks
04011ce0 g     F .text	00000104 read
04012294 g     F .text	00000068 alt_sys_init
04016230 g     O .rwdata	00000004 pacman_x
04019270 g     O .bss	00000048 devtable
04013f20 g     F .text	00000118 __register_exitproc
040025b8 g     F .text	00000408 HIDKProbe
04017e70 g     O .bss	00000018 msd_ep
0400a924 g     F .text	0000028c __multiply
040010fc g     F .text	000000c0 spawn_all_sprites
040127cc g     F .text	00000068 altera_avalon_jtag_uart_close
040038ec g     F .text	00000098 USB_init
04019170 g     O .bss	00000100 bigbuf
04004384 g     F .text	00000028 .hidden __mulsi3
04014750 g       *ABS*	00000000 __ram_rwdata_start
040141ec g       *ABS*	00000000 __ram_rodata_start
04017e88 g     O .bss	00000028 __malloc_current_mallinfo
0400125c g     F .text	00000050 get_pacman
04017e0c g     O .bss	00000001 last_usb_task_state
0400b204 g     F .text	0000014c __d2b
04017e04 g     O .bss	00000008 dev0ep
040004dc g     F .text	00000050 clearLED
04001788 g     F .text	000000a8 random_sprite
040122fc g     F .text	00000060 altera_avalon_jtag_uart_read_fd
04013cf8 g     F .text	000000c4 alt_get_fd
04013180 g     F .text	00000158 alt_busy_sleep
04003ff4 g     F .text	00000038 MSDEventHandler
0400d7c8 g     F .text	00000054 _close_r
04013ea4 g     F .text	0000007c memcmp
040123bc g     F .text	00000050 altera_avalon_jtag_uart_close_fd
040193b8 g       *ABS*	00000000 __alt_stack_base
0401240c g     F .text	00000054 altera_avalon_jtag_uart_ioctl_fd
04006b4c g     F .text	00000154 __swsetup_r
0400f4d4 g     F .text	000009d0 .hidden __divdf3
04008a28 g     F .text	00000118 __sfp
0400b468 g     F .text	00000078 __copybits
04014c1c g     O .rwdata	00000408 __malloc_av_
04008b74 g     F .text	00000004 __sinit_lock_release
04004058 g     F .text	00000038 CDCEventHandler
040100fc g     F .text	0000086c .hidden __muldf3
040040bc g     F .text	00000038 DummyEventHandler
0400bd00 g     F .text	00000054 __sread
04013bf0 g     F .text	00000108 alt_find_file
04001830 g     F .text	000000e0 connect_walls
04013334 g     F .text	000000a4 alt_dev_llist_insert
04011c5c g     F .text	00000024 __malloc_lock
04011e68 g     F .text	000000b0 sbrk
0400120c g     F .text	00000028 sprite_direction
0400876c g     F .text	0000005c _fflush_r
04016244 g     O .rwdata	00000004 pink_ghost_y
0400d81c g     F .text	000000dc _calloc_r
04016250 g     O .rwdata	00000004 teal_ghost_x
04011700 g     F .text	000001f4 gettimeofday
04017df8 g       *ABS*	00000000 __bss_start
04002fb0 g     F .text	00000188 MAX_busprobe
04017e01 g     O .bss	00000002 hid_device
040043ac g     F .text	00000128 memset
04000c88 g     F .text	00000474 main
040031cc g     F .text	0000006c MAX3421E_Task
04017e4c g     O .bss	00000004 alt_envp
04017e28 g     O .bss	00000004 __malloc_max_total_mem
0401624c g     O .rwdata	00000004 cyan_ghost_y
0401235c g     F .text	00000060 altera_avalon_jtag_uart_write_fd
0400d750 g     F .text	00000018 __swbuf
04004634 g     F .text	00000018 srand
0400414c g     F .text	00000084 ConvUTF8ToStr
0400be34 g     F .text	00000008 __sclose
08000000 g       *ABS*	00000000 __alt_heap_limit
0400d9e8 g     F .text	00000014 fclose
04006ec8 g     F .text	00001688 _dtoa_r
04009920 g     F .text	0000080c _malloc_r
0400ded0 g     F .text	00000030 __ascii_wctomb
04004748 g     F .text	00000050 time
04016290 g     O .rwdata	00000004 alt_errno
04017df8 g     O .bss	00000001 key
040094a4 g     F .text	000000c4 _fwalk
0400b60c g     F .text	000000c8 putc
040041d0 g     F .text	00000084 .hidden __divsi3
0400375c g     F .text	00000190 XferInTransfer
0400064c g     F .text	00000140 printSignedHex1
04008ba8 g     F .text	00000124 _malloc_trim_r
040141ec g       *ABS*	00000000 __CTOR_END__
04004114 g     F .text	00000038 GetDevtable
0400be3c g     F .text	000000dc strcmp
0400162c g     F .text	00000080 next_sprite
040141ec g       *ABS*	00000000 __flash_rodata_start
040141ec g       *ABS*	00000000 __DTOR_LIST__
0400356c g     F .text	00000074 XferCtrlND
04001548 g     F .text	00000084 next_pacman
0401623c g     O .rwdata	00000004 red_ghost_y
0400fea4 g     F .text	00000088 .hidden __nedf2
04002ee4 g     F .text	000000a8 MAX3421E_reset
0401225c g     F .text	00000038 alt_irq_init
04011de4 g     F .text	00000084 alt_release_fd
04014624 g     O .rodata	00000100 .hidden __clz_tab
04017e1c g     O .bss	00000004 _PathLocale
04013e58 g     F .text	00000014 atexit
04017df9 g     O .bss	00000008 kbdbuf
040007c4 g     F .text	000000b0 can_walk
0400d768 g     F .text	00000060 _write_r
04009740 g     F .text	00000018 setlocale
04016268 g     O .rwdata	00000004 _impure_ptr
04017e44 g     O .bss	00000004 alt_argc
040016ac g     F .text	000000dc animate_map
04008550 g     F .text	0000021c __sflush_r
04013438 g     F .text	00000060 _do_dtors
0400972c g     F .text	00000008 __locale_cjk_lang
04002c68 g     F .text	00000168 MAXbytes_wr
04000020 g       .exceptions	00000000 alt_irq_entry
0400b094 g     F .text	00000064 __ulp
04008b90 g     F .text	00000018 __fp_unlock_all
040012ac g     F .text	000000a8 get_ghost
0401627c g     O .rwdata	00000008 alt_fs_list
040015cc g     F .text	00000060 next_ghost
0400402c g     F .text	0000002c CDCProbe
04017e3c g     O .bss	00000008 alt_resettime
04000020 g       *ABS*	00000000 __ram_exceptions_start
04009758 g     F .text	0000000c localeconv
04000490 g     F .text	0000004c setLED
040040f4 g     F .text	00000020 GetUsbTaskState
040134b8 g     F .text	00000050 alt_ic_isr_register
04014228 g     O .rodata	00000010 devclasses
040162a4 g       *ABS*	00000000 _edata
04002b48 g     F .text	00000038 HIDKEventHandler
040193b8 g       *ABS*	00000000 _end
04003238 g     F .text	000000cc MaxIntHandler
0400d9fc g     F .text	00000164 __fputwc
04000230 g       *ABS*	00000000 __ram_exceptions_end
04012834 g     F .text	000000f0 altera_avalon_jtag_uart_ioctl
04016238 g     O .rwdata	00000004 red_ghost_x
04002b80 g     F .text	00000034 SPI_init
04013590 g     F .text	0000008c alt_ic_irq_disable
04016234 g     O .rwdata	00000004 pacman_y
0400bd5c g     F .text	0000007c __swrite
04016274 g     O .rwdata	00000004 __malloc_trim_threshold
04009720 g     F .text	0000000c __locale_msgcharset
04013e6c g     F .text	00000038 exit
04009568 g     F .text	000000c4 _fwalk_reent
0400147c g     F .text	00000060 map_get_sprite
0400ae98 g     F .text	000001fc __mdiff
040014dc g     F .text	0000006c map_set_sprite
04004254 g     F .text	00000074 .hidden __modsi3
08000000 g       *ABS*	00000000 __alt_data_end
04000020 g     F .exceptions	00000000 alt_exception
04008b6c g     F .text	00000004 __sfp_lock_release
04000000 g       *ABS*	00000000 __alt_mem_sdram
04002104 g     F .text	000000ac spu_set_map
04002b10 g     F .text	00000038 HIDMEventHandler
040141b8 g     F .text	00000034 _exit
04013054 g     F .text	0000012c alt_alarm_start
0400052c g     F .text	00000120 printSignedHex0
0400df5c g     F .text	0000010c .hidden __muldi3
04009764 g     F .text	000001bc __smakebuf_r
040046b0 g     F .text	00000098 strlen
040139e0 g     F .text	0000015c open
0400ff2c g     F .text	000000dc .hidden __gedf2
04001234 g     F .text	00000028 sprite_property
04016278 g     O .rwdata	00000004 __wctomb
0400c014 g     F .text	00000018 __sprint_r
04013498 g     F .text	00000020 alt_icache_flush_all
040162a0 g     O .rwdata	00000004 alt_priority_mask
04013508 g     F .text	00000088 alt_ic_irq_enable
04006a74 g     F .text	0000001c __vfprintf_internal
040021b0 g     F .text	00000408 HIDMProbe
0400df00 g     F .text	0000005c _wctomb_r
04016240 g     O .rwdata	00000004 pink_ghost_x
04002bb4 g     F .text	00000028 SPI_wr
04010968 g     F .text	000008fc .hidden __subdf3
0400a838 g     F .text	000000b0 __lo0bits
040011bc g     F .text	00000028 sprite_index
04016298 g     O .rwdata	00000008 alt_alarm_list
040133d8 g     F .text	00000060 _do_ctors
04016254 g     O .rwdata	00000004 teal_ghost_y
04016248 g     O .rwdata	00000004 cyan_ghost_x
0400de10 g     F .text	000000c0 wcrtomb
04011508 g     F .text	000000d8 close
04011a44 g     F .text	00000084 alt_load
0400db84 g     F .text	00000080 fputwc
04008b70 g     F .text	00000004 __sinit_lock_acquire
04003338 g     F .text	0000014c XferCtrlReq
0400a584 g     F .text	00000148 __multadd
0400a55c g     F .text	00000028 _Bfree



Disassembly of section .entry:

04000000 <__reset>:
 * Jump to the _start entry point in the .text section if reset code
 * is allowed or if optimizing for RTL simulation.
 */
#if defined(ALT_ALLOW_CODE_AT_RESET) || defined(ALT_SIM_OPTIMIZE)
    /* Jump to the _start entry point in the .text section. */
    movhi r1, %hi(_start)
 4000000:	00410034 	movhi	at,1024
    ori r1, r1, %lo(_start)
 4000004:	08408c14 	ori	at,at,560
    jmp r1
 4000008:	0800683a 	jmp	at
	...

Disassembly of section .exceptions:

04000020 <alt_exception>:

#else /* ALT_EXCEPTION_STACK disabled */
        /* 
         * Reserve space on normal stack for registers about to be pushed.
         */
        addi  sp, sp, -76
 4000020:	deffed04 	addi	sp,sp,-76
         * documentation for details).
         *
         * Leave a gap in the stack frame at 4(sp) for the muldiv handler to
         * store zero into.
         */
        stw   ra,  0(sp)
 4000024:	dfc00015 	stw	ra,0(sp)
        stw   r1,   8(sp)
 4000028:	d8400215 	stw	at,8(sp)
        stw   r2,  12(sp)
 400002c:	d8800315 	stw	r2,12(sp)
        stw   r3,  16(sp)
 4000030:	d8c00415 	stw	r3,16(sp)
        stw   r4,  20(sp)
 4000034:	d9000515 	stw	r4,20(sp)
        stw   r5,  24(sp)
 4000038:	d9400615 	stw	r5,24(sp)
        stw   r6,  28(sp)
 400003c:	d9800715 	stw	r6,28(sp)
        stw   r7,  32(sp)
 4000040:	d9c00815 	stw	r7,32(sp)
        rdctl r5, estatus   /* Read early to avoid usage stall */
 4000044:	000b307a 	rdctl	r5,estatus
        stw   r8,  36(sp)
 4000048:	da000915 	stw	r8,36(sp)
        stw   r9,  40(sp)
 400004c:	da400a15 	stw	r9,40(sp)
        stw   r10, 44(sp)
 4000050:	da800b15 	stw	r10,44(sp)
        stw   r11, 48(sp)
 4000054:	dac00c15 	stw	r11,48(sp)
        stw   r12, 52(sp)
 4000058:	db000d15 	stw	r12,52(sp)
        stw   r13, 56(sp)
 400005c:	db400e15 	stw	r13,56(sp)
        stw   r14, 60(sp)
 4000060:	db800f15 	stw	r14,60(sp)
        stw   r15, 64(sp)
 4000064:	dbc01015 	stw	r15,64(sp)
        /*
         * ea-4 contains the address of the instruction being executed
         * when the exception occured. For interrupt exceptions, we will
         * will be re-issue the isntruction. Store it in 72(sp)
         */
        stw   r5,  68(sp)  /* estatus */
 4000068:	d9401115 	stw	r5,68(sp)
        addi  r15, ea, -4  /* instruction that caused exception */
 400006c:	ebffff04 	addi	r15,ea,-4
        stw   r15,  72(sp)
 4000070:	dbc01215 	stw	r15,72(sp)
#else
        /*
         * Test to see if the exception was a software exception or caused 
         * by an external interrupt, and vector accordingly.
         */
        rdctl r4, ipending
 4000074:	0009313a 	rdctl	r4,ipending
        andi  r2, r5, 1
 4000078:	2880004c 	andi	r2,r5,1
        beq   r2, zero, .Lnot_irq
 400007c:	10000326 	beq	r2,zero,400008c <alt_exception+0x6c>
        beq   r4, zero, .Lnot_irq
 4000080:	20000226 	beq	r4,zero,400008c <alt_exception+0x6c>
        /*
         * Now that all necessary registers have been preserved, call 
         * alt_irq_handler() to process the interrupts.
         */

        call alt_irq_handler
 4000084:	40000fc0 	call	40000fc <alt_irq_handler>

        .section .exceptions.irqreturn, "xa"

        br    .Lexception_exit
 4000088:	00000706 	br	40000a8 <alt_exception+0x88>
         * upon completion, so we write ea (address of instruction *after*
         * the one where the exception occured) into 72(sp). The actual
         * instruction that caused the exception is written in r2, which these
         * handlers will utilize.
         */
        stw ea, 72(sp) /* EA is PC+4 so will skip over instruction causing exception */
 400008c:	df401215 	stw	ea,72(sp)
.Lunknown_16bit:
        addi.n r4, r4, 2 /* Need PC+2 to skip over instruction causing exception */
        stw r4, 72(sp)

#else /* CDX is not Enabled and all instructions are 32bits */
        ldw r2, -4(ea) /* Instruction value that caused exception */
 4000090:	e8bfff17 	ldw	r2,-4(ea)
         * debugger is present) or go into an infinite loop since the
         * handling behavior is undefined; in that case we will not return here.
         */

        /* Load exception-causing address as first argument (r4) */
        addi   r4, ea, -4
 4000094:	e93fff04 	addi	r4,ea,-4

        /* Call the instruction-exception entry */
        call   alt_instruction_exception_entry
 4000098:	40001d00 	call	40001d0 <alt_instruction_exception_entry>
         * instruction
         *
         * Return code was 0: Skip. The instruction after the exception is
         * already stored in 72(sp).
         */
        bne   r2, r0, .Lexception_exit
 400009c:	1000021e 	bne	r2,zero,40000a8 <alt_exception+0x88>

        /*
         * Otherwise, modify 72(sp) to re-issue the instruction that caused the
         * exception.
         */
        addi  r15, ea, -4  /* instruction that caused exception */
 40000a0:	ebffff04 	addi	r15,ea,-4
        stw   r15,  72(sp)
 40000a4:	dbc01215 	stw	r15,72(sp)
        /* 
         * Restore the saved registers, so that all general purpose registers 
         * have been restored to their state at the time the interrupt occured.
         */

        ldw   r5,  68(sp)
 40000a8:	d9401117 	ldw	r5,68(sp)
        ldw   ea,  72(sp)  /* This becomes the PC once eret is executed */
 40000ac:	df401217 	ldw	ea,72(sp)
        ldw   ra,   0(sp)
 40000b0:	dfc00017 	ldw	ra,0(sp)

        wrctl estatus, r5
 40000b4:	2801707a 	wrctl	estatus,r5

        ldw   r1,   8(sp)
 40000b8:	d8400217 	ldw	at,8(sp)
        ldw   r2,  12(sp)
 40000bc:	d8800317 	ldw	r2,12(sp)
        ldw   r3,  16(sp)
 40000c0:	d8c00417 	ldw	r3,16(sp)
        ldw   r4,  20(sp)
 40000c4:	d9000517 	ldw	r4,20(sp)
        ldw   r5,  24(sp)
 40000c8:	d9400617 	ldw	r5,24(sp)
        ldw   r6,  28(sp)
 40000cc:	d9800717 	ldw	r6,28(sp)
        ldw   r7,  32(sp)
 40000d0:	d9c00817 	ldw	r7,32(sp)

#if defined(ALT_EXCEPTION_STACK) && defined(ALT_STACK_CHECK)
        ldw   et, %gprel(alt_exception_old_stack_limit)(gp)
#endif

        ldw   r8,  36(sp)
 40000d4:	da000917 	ldw	r8,36(sp)
        ldw   r9,  40(sp)
 40000d8:	da400a17 	ldw	r9,40(sp)
        ldw   r10, 44(sp)
 40000dc:	da800b17 	ldw	r10,44(sp)
        ldw   r11, 48(sp)
 40000e0:	dac00c17 	ldw	r11,48(sp)
        ldw   r12, 52(sp)
 40000e4:	db000d17 	ldw	r12,52(sp)
        ldw   r13, 56(sp)
 40000e8:	db400e17 	ldw	r13,56(sp)
        ldw   r14, 60(sp)
 40000ec:	db800f17 	ldw	r14,60(sp)
        ldw   r15, 64(sp)
 40000f0:	dbc01017 	ldw	r15,64(sp)
        stw   et, %gprel(alt_stack_limit_value)(gp)
        stw   zero, %gprel(alt_exception_old_stack_limit)(gp)
#endif /* ALT_STACK_CHECK */
        ldw   sp,  76(sp)
#else /* ALT_EXCEPTION_STACK disabled */
        addi  sp, sp, 76
 40000f4:	dec01304 	addi	sp,sp,76

        /*
         * Return to the interrupted instruction.
         */

        eret
 40000f8:	ef80083a 	eret

040000fc <alt_irq_handler>:
 * instruction is present if the macro ALT_CI_INTERRUPT_VECTOR defined.
 */

void alt_irq_handler (void) __attribute__ ((section (".exceptions")));
void alt_irq_handler (void)
{
 40000fc:	defff904 	addi	sp,sp,-28
 4000100:	dfc00615 	stw	ra,24(sp)
 4000104:	df000515 	stw	fp,20(sp)
 4000108:	df000504 	addi	fp,sp,20
  
  /*
   * Notify the operating system that we are at interrupt level.
   */ 
  
  ALT_OS_INT_ENTER();
 400010c:	0001883a 	nop
#ifndef NIOS2_EIC_PRESENT
static ALT_INLINE alt_u32 ALT_ALWAYS_INLINE alt_irq_pending (void)
{
  alt_u32 active;

  NIOS2_READ_IPENDING (active);
 4000110:	0005313a 	rdctl	r2,ipending
 4000114:	e0bffe15 	stw	r2,-8(fp)

  return active;
 4000118:	e0bffe17 	ldw	r2,-8(fp)
   * Consider the case where the high priority interupt is asserted during
   * the interrupt entry sequence for a lower priority interrupt to see why
   * this is the case.
   */

  active = alt_irq_pending ();
 400011c:	e0bffb15 	stw	r2,-20(fp)

  do
  {
    i = 0;
 4000120:	e03ffd15 	stw	zero,-12(fp)
    mask = 1;
 4000124:	00800044 	movi	r2,1
 4000128:	e0bffc15 	stw	r2,-16(fp)
     * called to clear the interrupt condition.
     */

    do
    {
      if (active & mask)
 400012c:	e0fffb17 	ldw	r3,-20(fp)
 4000130:	e0bffc17 	ldw	r2,-16(fp)
 4000134:	1884703a 	and	r2,r3,r2
 4000138:	10001426 	beq	r2,zero,400018c <alt_irq_handler+0x90>
      { 
#ifdef ALT_ENHANCED_INTERRUPT_API_PRESENT
        alt_irq[i].handler(alt_irq[i].context); 
 400013c:	008100b4 	movhi	r2,1026
 4000140:	10a4ae04 	addi	r2,r2,-27976
 4000144:	e0fffd17 	ldw	r3,-12(fp)
 4000148:	180690fa 	slli	r3,r3,3
 400014c:	10c5883a 	add	r2,r2,r3
 4000150:	10c00017 	ldw	r3,0(r2)
 4000154:	008100b4 	movhi	r2,1026
 4000158:	10a4ae04 	addi	r2,r2,-27976
 400015c:	e13ffd17 	ldw	r4,-12(fp)
 4000160:	200890fa 	slli	r4,r4,3
 4000164:	1105883a 	add	r2,r2,r4
 4000168:	10800104 	addi	r2,r2,4
 400016c:	10800017 	ldw	r2,0(r2)
 4000170:	1009883a 	mov	r4,r2
 4000174:	183ee83a 	callr	r3
#else
        alt_irq[i].handler(alt_irq[i].context, i); 
#endif
        break;
 4000178:	0001883a 	nop
#ifndef NIOS2_EIC_PRESENT
static ALT_INLINE alt_u32 ALT_ALWAYS_INLINE alt_irq_pending (void)
{
  alt_u32 active;

  NIOS2_READ_IPENDING (active);
 400017c:	0005313a 	rdctl	r2,ipending
 4000180:	e0bfff15 	stw	r2,-4(fp)

  return active;
 4000184:	e0bfff17 	ldw	r2,-4(fp)
 4000188:	00000706 	br	40001a8 <alt_irq_handler+0xac>
      }
      mask <<= 1;
 400018c:	e0bffc17 	ldw	r2,-16(fp)
 4000190:	1085883a 	add	r2,r2,r2
 4000194:	e0bffc15 	stw	r2,-16(fp)
      i++;
 4000198:	e0bffd17 	ldw	r2,-12(fp)
 400019c:	10800044 	addi	r2,r2,1
 40001a0:	e0bffd15 	stw	r2,-12(fp)

    } while (1);
 40001a4:	003fe106 	br	400012c <__alt_data_end+0xfc00012c>

    active = alt_irq_pending ();
 40001a8:	e0bffb15 	stw	r2,-20(fp)
    
  } while (active);
 40001ac:	e0bffb17 	ldw	r2,-20(fp)
 40001b0:	103fdb1e 	bne	r2,zero,4000120 <__alt_data_end+0xfc000120>

  /*
   * Notify the operating system that interrupt processing is complete.
   */ 

  ALT_OS_INT_EXIT();
 40001b4:	0001883a 	nop
}
 40001b8:	0001883a 	nop
 40001bc:	e037883a 	mov	sp,fp
 40001c0:	dfc00117 	ldw	ra,4(sp)
 40001c4:	df000017 	ldw	fp,0(sp)
 40001c8:	dec00204 	addi	sp,sp,8
 40001cc:	f800283a 	ret

040001d0 <alt_instruction_exception_entry>:
 * that handler if it has been registered. Absent a handler, it will
 * break break or hang as discussed below.
 */
int 
alt_instruction_exception_entry (alt_u32 exception_pc)
{
 40001d0:	defffb04 	addi	sp,sp,-20
 40001d4:	dfc00415 	stw	ra,16(sp)
 40001d8:	df000315 	stw	fp,12(sp)
 40001dc:	df000304 	addi	fp,sp,12
 40001e0:	e13fff15 	stw	r4,-4(fp)
  cause = ( (cause & NIOS2_EXCEPTION_REG_CAUSE_MASK) >>
              NIOS2_EXCEPTION_REG_CAUSE_OFST );

  NIOS2_READ_BADADDR(badaddr);
#else
  cause = NIOS2_EXCEPTION_CAUSE_NOT_PRESENT;
 40001e4:	00bfffc4 	movi	r2,-1
 40001e8:	e0bffd15 	stw	r2,-12(fp)
  badaddr = 0;
 40001ec:	e03ffe15 	stw	zero,-8(fp)
#endif /* NIOS2_HAS_EXTRA_EXCEPTION_INFO */

  if(alt_instruction_exception_handler) {
 40001f0:	d0a70c17 	ldw	r2,-25552(gp)
 40001f4:	10000726 	beq	r2,zero,4000214 <alt_instruction_exception_entry+0x44>
     * Call handler. Its return value indicates whether the exception-causing
     * instruction should be re-issued. The code that called us,
     * alt_eceptions_entry.S, will look at this value and adjust the ea
     * register as necessary
     */
    return alt_instruction_exception_handler(cause, exception_pc, badaddr);
 40001f8:	d0a70c17 	ldw	r2,-25552(gp)
 40001fc:	e0fffd17 	ldw	r3,-12(fp)
 4000200:	e1bffe17 	ldw	r6,-8(fp)
 4000204:	e17fff17 	ldw	r5,-4(fp)
 4000208:	1809883a 	mov	r4,r3
 400020c:	103ee83a 	callr	r2
 4000210:	00000206 	br	400021c <alt_instruction_exception_entry+0x4c>
   *    (a peripheral which negates its interrupt output before its
   *    interrupt handler has been executed will cause spurious interrupts)
   */
  else {
#ifdef NIOS2_HAS_DEBUG_STUB
    NIOS2_BREAK();
 4000214:	003da03a 	break	0
      ;
#endif /* NIOS2_HAS_DEBUG_STUB */
  }

  /* We should not get here. Remove compiler warning. */
  return NIOS2_EXCEPTION_RETURN_REISSUE_INST;
 4000218:	0005883a 	mov	r2,zero
}
 400021c:	e037883a 	mov	sp,fp
 4000220:	dfc00117 	ldw	ra,4(sp)
 4000224:	df000017 	ldw	fp,0(sp)
 4000228:	dec00204 	addi	sp,sp,8
 400022c:	f800283a 	ret

Disassembly of section .text:

04000230 <_start>:

    /*
     * Now that the caches are initialized, set up the stack pointer and global pointer.
     * The values provided by the linker are assumed to be correctly aligned.
     */
    movhi sp, %hi(__alt_stack_pointer)
 4000230:	06c20034 	movhi	sp,2048
    ori sp, sp, %lo(__alt_stack_pointer)
 4000234:	dec00014 	ori	sp,sp,0
    movhi gp, %hi(_gp)
 4000238:	06810074 	movhi	gp,1025
    ori gp, gp, %lo(_gp)
 400023c:	d6b88b14 	ori	gp,gp,57900
 */
#ifndef ALT_SIM_OPTIMIZE
    /* Log that the BSS is about to be cleared. */
    ALT_LOG_PUTS(alt_log_msg_bss)

    movhi r2, %hi(__bss_start)
 4000240:	00810074 	movhi	r2,1025
    ori r2, r2, %lo(__bss_start)
 4000244:	109f7e14 	ori	r2,r2,32248

    movhi r3, %hi(__bss_end)
 4000248:	00c10074 	movhi	r3,1025
    ori r3, r3, %lo(__bss_end)
 400024c:	18e4ee14 	ori	r3,r3,37816

    beq r2, r3, 1f
 4000250:	10c00326 	beq	r2,r3,4000260 <_start+0x30>

0:
    stw zero, (r2)
 4000254:	10000015 	stw	zero,0(r2)
    addi r2, r2, 4
 4000258:	10800104 	addi	r2,r2,4
    bltu r2, r3, 0b
 400025c:	10fffd36 	bltu	r2,r3,4000254 <__alt_data_end+0xfc000254>
     * section aren't defined until alt_load() has been called).
     */
    mov   et, zero
#endif

    call alt_load
 4000260:	4011a440 	call	4011a44 <alt_load>

    /* Log that alt_main is about to be called. */
    ALT_LOG_PUTS(alt_log_msg_alt_main)

    /* Call the C entry point. It should never return. */
    call alt_main
 4000264:	4011be00 	call	4011be0 <alt_main>

04000268 <alt_after_alt_main>:

    /* Wait in infinite loop in case alt_main does return. */
alt_after_alt_main:
    br alt_after_alt_main
 4000268:	003fff06 	br	4000268 <__alt_data_end+0xfc000268>

0400026c <spu_control>:
#define KEY_D 0x07

#define NUM_THREADS 5

void spu_control(int instruction)
{
 400026c:	defffe04 	addi	sp,sp,-8
 4000270:	df000115 	stw	fp,4(sp)
 4000274:	df000104 	addi	fp,sp,4
 4000278:	e13fff15 	stw	r4,-4(fp)
	IOWR_ALTERA_AVALON_PIO_DATA(CONTROL_BASE, instruction);
 400027c:	00820034 	movhi	r2,2048
 4000280:	10845404 	addi	r2,r2,4432
 4000284:	e0ffff17 	ldw	r3,-4(fp)
 4000288:	10c00035 	stwio	r3,0(r2)
}
 400028c:	0001883a 	nop
 4000290:	e037883a 	mov	sp,fp
 4000294:	df000017 	ldw	fp,0(sp)
 4000298:	dec00104 	addi	sp,sp,4
 400029c:	f800283a 	ret

040002a0 <GetDriverandReport>:
int cyan_ghost_y = 12;
int teal_ghost_x = 20;
int teal_ghost_y = 12;

BYTE GetDriverandReport()
{
 40002a0:	defff604 	addi	sp,sp,-40
 40002a4:	dfc00915 	stw	ra,36(sp)
 40002a8:	df000815 	stw	fp,32(sp)
 40002ac:	df000804 	addi	fp,sp,32
	BYTE i;
	BYTE rcode;
	BYTE device = 0xFF;
 40002b0:	00bfffc4 	movi	r2,-1
 40002b4:	e0bffd45 	stb	r2,-11(fp)
	BYTE tmpbyte;

	DEV_RECORD* tpl_ptr;
	printf("Reached USB_STATE_RUNNING (0x40)\n");
 40002b8:	01010074 	movhi	r4,1025
 40002bc:	21108e04 	addi	r4,r4,16952
 40002c0:	40046200 	call	4004620 <puts>
	for (i = 1; i < USB_NUMDEVICES; i++) {
 40002c4:	00800044 	movi	r2,1
 40002c8:	e0bffd05 	stb	r2,-12(fp)
 40002cc:	00001f06 	br	400034c <GetDriverandReport+0xac>
		tpl_ptr = GetDevtable(i);
 40002d0:	e0bffd03 	ldbu	r2,-12(fp)
 40002d4:	1009883a 	mov	r4,r2
 40002d8:	40041140 	call	4004114 <GetDevtable>
 40002dc:	e0bffe15 	stw	r2,-8(fp)
		if (tpl_ptr->epinfo != NULL) {
 40002e0:	e0bffe17 	ldw	r2,-8(fp)
 40002e4:	10800017 	ldw	r2,0(r2)
 40002e8:	10001526 	beq	r2,zero,4000340 <GetDriverandReport+0xa0>
			printf("Device: %d", i);
 40002ec:	e0bffd03 	ldbu	r2,-12(fp)
 40002f0:	100b883a 	mov	r5,r2
 40002f4:	01010074 	movhi	r4,1025
 40002f8:	21109704 	addi	r4,r4,16988
 40002fc:	40045040 	call	4004504 <printf>
			printf("%s \n", devclasses[tpl_ptr->devclass]);
 4000300:	e0bffe17 	ldw	r2,-8(fp)
 4000304:	10800103 	ldbu	r2,4(r2)
 4000308:	10c03fcc 	andi	r3,r2,255
 400030c:	00810074 	movhi	r2,1025
 4000310:	10908a04 	addi	r2,r2,16936
 4000314:	18c7883a 	add	r3,r3,r3
 4000318:	18c7883a 	add	r3,r3,r3
 400031c:	10c5883a 	add	r2,r2,r3
 4000320:	10800017 	ldw	r2,0(r2)
 4000324:	100b883a 	mov	r5,r2
 4000328:	01010074 	movhi	r4,1025
 400032c:	21109a04 	addi	r4,r4,17000
 4000330:	40045040 	call	4004504 <printf>
			device = tpl_ptr->devclass;
 4000334:	e0bffe17 	ldw	r2,-8(fp)
 4000338:	10800103 	ldbu	r2,4(r2)
 400033c:	e0bffd45 	stb	r2,-11(fp)
	BYTE device = 0xFF;
	BYTE tmpbyte;

	DEV_RECORD* tpl_ptr;
	printf("Reached USB_STATE_RUNNING (0x40)\n");
	for (i = 1; i < USB_NUMDEVICES; i++) {
 4000340:	e0bffd03 	ldbu	r2,-12(fp)
 4000344:	10800044 	addi	r2,r2,1
 4000348:	e0bffd05 	stb	r2,-12(fp)
 400034c:	e0bffd03 	ldbu	r2,-12(fp)
 4000350:	10800230 	cmpltui	r2,r2,8
 4000354:	103fde1e 	bne	r2,zero,40002d0 <__alt_data_end+0xfc0002d0>
			printf("%s \n", devclasses[tpl_ptr->devclass]);
			device = tpl_ptr->devclass;
		}
	}
	//Query rate and protocol
	rcode = XferGetIdle(addr, 0, hid_device.interface, 0, &tmpbyte);
 4000358:	d0a00003 	ldbu	r2,-32768(gp)
 400035c:	11003fcc 	andi	r4,r2,255
 4000360:	d0a6f583 	ldbu	r2,-25642(gp)
 4000364:	10803fcc 	andi	r2,r2,255
 4000368:	e0ffff44 	addi	r3,fp,-3
 400036c:	d8c00415 	stw	r3,16(sp)
 4000370:	00c00044 	movi	r3,1
 4000374:	d8c00315 	stw	r3,12(sp)
 4000378:	d8800215 	stw	r2,8(sp)
 400037c:	d8000115 	stw	zero,4(sp)
 4000380:	d8000015 	stw	zero,0(sp)
 4000384:	01c00084 	movi	r7,2
 4000388:	01802844 	movi	r6,161
 400038c:	000b883a 	mov	r5,zero
 4000390:	40033380 	call	4003338 <XferCtrlReq>
 4000394:	e0bfff05 	stb	r2,-4(fp)
	if (rcode) {   //error handling
 4000398:	e0bfff03 	ldbu	r2,-4(fp)
 400039c:	10000926 	beq	r2,zero,40003c4 <GetDriverandReport+0x124>
		printf("GetIdle Error. Error code: ");
 40003a0:	01010074 	movhi	r4,1025
 40003a4:	21109c04 	addi	r4,r4,17008
 40003a8:	40045040 	call	4004504 <printf>
		printf("%x \n", rcode);
 40003ac:	e0bfff03 	ldbu	r2,-4(fp)
 40003b0:	100b883a 	mov	r5,r2
 40003b4:	01010074 	movhi	r4,1025
 40003b8:	2110a304 	addi	r4,r4,17036
 40003bc:	40045040 	call	4004504 <printf>
 40003c0:	00000906 	br	40003e8 <GetDriverandReport+0x148>
	} else {
		printf("Update rate: ");
 40003c4:	01010074 	movhi	r4,1025
 40003c8:	2110a504 	addi	r4,r4,17044
 40003cc:	40045040 	call	4004504 <printf>
		printf("%x \n", tmpbyte);
 40003d0:	e0bfff43 	ldbu	r2,-3(fp)
 40003d4:	10803fcc 	andi	r2,r2,255
 40003d8:	100b883a 	mov	r5,r2
 40003dc:	01010074 	movhi	r4,1025
 40003e0:	2110a304 	addi	r4,r4,17036
 40003e4:	40045040 	call	4004504 <printf>
	}
	printf("Protocol: ");
 40003e8:	01010074 	movhi	r4,1025
 40003ec:	2110a904 	addi	r4,r4,17060
 40003f0:	40045040 	call	4004504 <printf>
	rcode = XferGetProto(addr, 0, hid_device.interface, &tmpbyte);
 40003f4:	d0a00003 	ldbu	r2,-32768(gp)
 40003f8:	11003fcc 	andi	r4,r2,255
 40003fc:	d0a6f583 	ldbu	r2,-25642(gp)
 4000400:	10803fcc 	andi	r2,r2,255
 4000404:	e0ffff44 	addi	r3,fp,-3
 4000408:	d8c00415 	stw	r3,16(sp)
 400040c:	00c00044 	movi	r3,1
 4000410:	d8c00315 	stw	r3,12(sp)
 4000414:	d8800215 	stw	r2,8(sp)
 4000418:	d8000115 	stw	zero,4(sp)
 400041c:	d8000015 	stw	zero,0(sp)
 4000420:	01c000c4 	movi	r7,3
 4000424:	01802844 	movi	r6,161
 4000428:	000b883a 	mov	r5,zero
 400042c:	40033380 	call	4003338 <XferCtrlReq>
 4000430:	e0bfff05 	stb	r2,-4(fp)
	if (rcode) {   //error handling
 4000434:	e0bfff03 	ldbu	r2,-4(fp)
 4000438:	10000926 	beq	r2,zero,4000460 <GetDriverandReport+0x1c0>
		printf("GetProto Error. Error code ");
 400043c:	01010074 	movhi	r4,1025
 4000440:	2110ac04 	addi	r4,r4,17072
 4000444:	40045040 	call	4004504 <printf>
		printf("%x \n", rcode);
 4000448:	e0bfff03 	ldbu	r2,-4(fp)
 400044c:	100b883a 	mov	r5,r2
 4000450:	01010074 	movhi	r4,1025
 4000454:	2110a304 	addi	r4,r4,17036
 4000458:	40045040 	call	4004504 <printf>
 400045c:	00000606 	br	4000478 <GetDriverandReport+0x1d8>
	} else {
		printf("%d \n", tmpbyte);
 4000460:	e0bfff43 	ldbu	r2,-3(fp)
 4000464:	10803fcc 	andi	r2,r2,255
 4000468:	100b883a 	mov	r5,r2
 400046c:	01010074 	movhi	r4,1025
 4000470:	2110b304 	addi	r4,r4,17100
 4000474:	40045040 	call	4004504 <printf>
	}
	return device;
 4000478:	e0bffd43 	ldbu	r2,-11(fp)
}
 400047c:	e037883a 	mov	sp,fp
 4000480:	dfc00117 	ldw	ra,4(sp)
 4000484:	df000017 	ldw	fp,0(sp)
 4000488:	dec00204 	addi	sp,sp,8
 400048c:	f800283a 	ret

04000490 <setLED>:

void setLED(int LED)
{
 4000490:	defffe04 	addi	sp,sp,-8
 4000494:	df000115 	stw	fp,4(sp)
 4000498:	df000104 	addi	fp,sp,4
 400049c:	e13fff15 	stw	r4,-4(fp)
	IOWR_ALTERA_AVALON_PIO_DATA(LEDS_PIO_BASE,
 40004a0:	00820034 	movhi	r2,2048
 40004a4:	10845804 	addi	r2,r2,4448
 40004a8:	10c00037 	ldwio	r3,0(r2)
 40004ac:	01000044 	movi	r4,1
 40004b0:	e0bfff17 	ldw	r2,-4(fp)
 40004b4:	2084983a 	sll	r2,r4,r2
 40004b8:	1886b03a 	or	r3,r3,r2
 40004bc:	00820034 	movhi	r2,2048
 40004c0:	10845804 	addi	r2,r2,4448
 40004c4:	10c00035 	stwio	r3,0(r2)
			(IORD_ALTERA_AVALON_PIO_DATA(LEDS_PIO_BASE) | (0x001 << LED)));
}
 40004c8:	0001883a 	nop
 40004cc:	e037883a 	mov	sp,fp
 40004d0:	df000017 	ldw	fp,0(sp)
 40004d4:	dec00104 	addi	sp,sp,4
 40004d8:	f800283a 	ret

040004dc <clearLED>:

void clearLED(int LED)
{
 40004dc:	defffe04 	addi	sp,sp,-8
 40004e0:	df000115 	stw	fp,4(sp)
 40004e4:	df000104 	addi	fp,sp,4
 40004e8:	e13fff15 	stw	r4,-4(fp)
	IOWR_ALTERA_AVALON_PIO_DATA(LEDS_PIO_BASE,
 40004ec:	00820034 	movhi	r2,2048
 40004f0:	10845804 	addi	r2,r2,4448
 40004f4:	10c00037 	ldwio	r3,0(r2)
 40004f8:	01000044 	movi	r4,1
 40004fc:	e0bfff17 	ldw	r2,-4(fp)
 4000500:	2084983a 	sll	r2,r4,r2
 4000504:	0084303a 	nor	r2,zero,r2
 4000508:	1886703a 	and	r3,r3,r2
 400050c:	00820034 	movhi	r2,2048
 4000510:	10845804 	addi	r2,r2,4448
 4000514:	10c00035 	stwio	r3,0(r2)
			(IORD_ALTERA_AVALON_PIO_DATA(LEDS_PIO_BASE) & ~(0x001 << LED)));

}
 4000518:	0001883a 	nop
 400051c:	e037883a 	mov	sp,fp
 4000520:	df000017 	ldw	fp,0(sp)
 4000524:	dec00104 	addi	sp,sp,4
 4000528:	f800283a 	ret

0400052c <printSignedHex0>:

void printSignedHex0(signed char value)
{
 400052c:	defffc04 	addi	sp,sp,-16
 4000530:	dfc00315 	stw	ra,12(sp)
 4000534:	df000215 	stw	fp,8(sp)
 4000538:	df000204 	addi	fp,sp,8
 400053c:	2005883a 	mov	r2,r4
 4000540:	e0bfff05 	stb	r2,-4(fp)
	BYTE tens = 0;
 4000544:	e03ffe05 	stb	zero,-8(fp)
	BYTE ones = 0;
 4000548:	e03ffe45 	stb	zero,-7(fp)
	WORD pio_val = IORD_ALTERA_AVALON_PIO_DATA(HEX_DIGITS_PIO_BASE);
 400054c:	00820034 	movhi	r2,2048
 4000550:	10845c04 	addi	r2,r2,4464
 4000554:	10800037 	ldwio	r2,0(r2)
 4000558:	e0bffe8d 	sth	r2,-6(fp)
	if (value < 0) {
 400055c:	e0bfff07 	ldb	r2,-4(fp)
 4000560:	1000060e 	bge	r2,zero,400057c <printSignedHex0+0x50>
		setLED(11);
 4000564:	010002c4 	movi	r4,11
 4000568:	40004900 	call	4000490 <setLED>
		value = -value;
 400056c:	e0bfff03 	ldbu	r2,-4(fp)
 4000570:	0085c83a 	sub	r2,zero,r2
 4000574:	e0bfff05 	stb	r2,-4(fp)
 4000578:	00000206 	br	4000584 <printSignedHex0+0x58>
	} else {
		clearLED(11);
 400057c:	010002c4 	movi	r4,11
 4000580:	40004dc0 	call	40004dc <clearLED>
	}
	//handled hundreds
	if (value / 100)
 4000584:	e0bfff03 	ldbu	r2,-4(fp)
 4000588:	108018c4 	addi	r2,r2,99
 400058c:	10803fcc 	andi	r2,r2,255
 4000590:	108031f0 	cmpltui	r2,r2,199
 4000594:	1000031e 	bne	r2,zero,40005a4 <printSignedHex0+0x78>
		setLED(13);
 4000598:	01000344 	movi	r4,13
 400059c:	40004900 	call	4000490 <setLED>
 40005a0:	00000206 	br	40005ac <printSignedHex0+0x80>
	else
		clearLED(13);
 40005a4:	01000344 	movi	r4,13
 40005a8:	40004dc0 	call	40004dc <clearLED>

	value = value % 100;
 40005ac:	e0bfff07 	ldb	r2,-4(fp)
 40005b0:	01401904 	movi	r5,100
 40005b4:	1009883a 	mov	r4,r2
 40005b8:	40042540 	call	4004254 <__modsi3>
 40005bc:	e0bfff05 	stb	r2,-4(fp)
	tens = value / 10;
 40005c0:	e0bfff07 	ldb	r2,-4(fp)
 40005c4:	01400284 	movi	r5,10
 40005c8:	1009883a 	mov	r4,r2
 40005cc:	40041d00 	call	40041d0 <__divsi3>
 40005d0:	e0bffe05 	stb	r2,-8(fp)
	ones = value % 10;
 40005d4:	e0bfff07 	ldb	r2,-4(fp)
 40005d8:	01400284 	movi	r5,10
 40005dc:	1009883a 	mov	r4,r2
 40005e0:	40042540 	call	4004254 <__modsi3>
 40005e4:	e0bffe45 	stb	r2,-7(fp)

	pio_val &= 0x00FF;
 40005e8:	e0bffe8b 	ldhu	r2,-6(fp)
 40005ec:	10803fcc 	andi	r2,r2,255
 40005f0:	e0bffe8d 	sth	r2,-6(fp)
	pio_val |= (tens << 12);
 40005f4:	e0bffe03 	ldbu	r2,-8(fp)
 40005f8:	1004933a 	slli	r2,r2,12
 40005fc:	1007883a 	mov	r3,r2
 4000600:	e0bffe8b 	ldhu	r2,-6(fp)
 4000604:	1884b03a 	or	r2,r3,r2
 4000608:	e0bffe8d 	sth	r2,-6(fp)
	pio_val |= (ones << 8);
 400060c:	e0bffe43 	ldbu	r2,-7(fp)
 4000610:	1004923a 	slli	r2,r2,8
 4000614:	1007883a 	mov	r3,r2
 4000618:	e0bffe8b 	ldhu	r2,-6(fp)
 400061c:	1884b03a 	or	r2,r3,r2
 4000620:	e0bffe8d 	sth	r2,-6(fp)

	IOWR_ALTERA_AVALON_PIO_DATA(HEX_DIGITS_PIO_BASE, pio_val);
 4000624:	e0fffe8b 	ldhu	r3,-6(fp)
 4000628:	00820034 	movhi	r2,2048
 400062c:	10845c04 	addi	r2,r2,4464
 4000630:	10c00035 	stwio	r3,0(r2)
}
 4000634:	0001883a 	nop
 4000638:	e037883a 	mov	sp,fp
 400063c:	dfc00117 	ldw	ra,4(sp)
 4000640:	df000017 	ldw	fp,0(sp)
 4000644:	dec00204 	addi	sp,sp,8
 4000648:	f800283a 	ret

0400064c <printSignedHex1>:

void printSignedHex1(signed char value)
{
 400064c:	defffb04 	addi	sp,sp,-20
 4000650:	dfc00415 	stw	ra,16(sp)
 4000654:	df000315 	stw	fp,12(sp)
 4000658:	df000304 	addi	fp,sp,12
 400065c:	2005883a 	mov	r2,r4
 4000660:	e0bfff05 	stb	r2,-4(fp)
	BYTE tens = 0;
 4000664:	e03ffd05 	stb	zero,-12(fp)
	BYTE ones = 0;
 4000668:	e03ffd45 	stb	zero,-11(fp)
	DWORD pio_val = IORD_ALTERA_AVALON_PIO_DATA(HEX_DIGITS_PIO_BASE);
 400066c:	00820034 	movhi	r2,2048
 4000670:	10845c04 	addi	r2,r2,4464
 4000674:	10800037 	ldwio	r2,0(r2)
 4000678:	e0bffe15 	stw	r2,-8(fp)
	if (value < 0) {
 400067c:	e0bfff07 	ldb	r2,-4(fp)
 4000680:	1000060e 	bge	r2,zero,400069c <printSignedHex1+0x50>
		setLED(10);
 4000684:	01000284 	movi	r4,10
 4000688:	40004900 	call	4000490 <setLED>
		value = -value;
 400068c:	e0bfff03 	ldbu	r2,-4(fp)
 4000690:	0085c83a 	sub	r2,zero,r2
 4000694:	e0bfff05 	stb	r2,-4(fp)
 4000698:	00000206 	br	40006a4 <printSignedHex1+0x58>
	} else {
		clearLED(10);
 400069c:	01000284 	movi	r4,10
 40006a0:	40004dc0 	call	40004dc <clearLED>
	}
	//handled hundreds
	if (value / 100)
 40006a4:	e0bfff03 	ldbu	r2,-4(fp)
 40006a8:	108018c4 	addi	r2,r2,99
 40006ac:	10803fcc 	andi	r2,r2,255
 40006b0:	108031f0 	cmpltui	r2,r2,199
 40006b4:	1000031e 	bne	r2,zero,40006c4 <printSignedHex1+0x78>
		setLED(12);
 40006b8:	01000304 	movi	r4,12
 40006bc:	40004900 	call	4000490 <setLED>
 40006c0:	00000206 	br	40006cc <printSignedHex1+0x80>
	else
		clearLED(12);
 40006c4:	01000304 	movi	r4,12
 40006c8:	40004dc0 	call	40004dc <clearLED>

	value = value % 100;
 40006cc:	e0bfff07 	ldb	r2,-4(fp)
 40006d0:	01401904 	movi	r5,100
 40006d4:	1009883a 	mov	r4,r2
 40006d8:	40042540 	call	4004254 <__modsi3>
 40006dc:	e0bfff05 	stb	r2,-4(fp)
	tens = value / 10;
 40006e0:	e0bfff07 	ldb	r2,-4(fp)
 40006e4:	01400284 	movi	r5,10
 40006e8:	1009883a 	mov	r4,r2
 40006ec:	40041d00 	call	40041d0 <__divsi3>
 40006f0:	e0bffd05 	stb	r2,-12(fp)
	ones = value % 10;
 40006f4:	e0bfff07 	ldb	r2,-4(fp)
 40006f8:	01400284 	movi	r5,10
 40006fc:	1009883a 	mov	r4,r2
 4000700:	40042540 	call	4004254 <__modsi3>
 4000704:	e0bffd45 	stb	r2,-11(fp)
	tens = value / 10;
 4000708:	e0bfff07 	ldb	r2,-4(fp)
 400070c:	01400284 	movi	r5,10
 4000710:	1009883a 	mov	r4,r2
 4000714:	40041d00 	call	40041d0 <__divsi3>
 4000718:	e0bffd05 	stb	r2,-12(fp)
	ones = value % 10;
 400071c:	e0bfff07 	ldb	r2,-4(fp)
 4000720:	01400284 	movi	r5,10
 4000724:	1009883a 	mov	r4,r2
 4000728:	40042540 	call	4004254 <__modsi3>
 400072c:	e0bffd45 	stb	r2,-11(fp)

	pio_val &= 0xFF00;
 4000730:	e0bffe17 	ldw	r2,-8(fp)
 4000734:	10bfc00c 	andi	r2,r2,65280
 4000738:	e0bffe15 	stw	r2,-8(fp)
	pio_val |= (tens << 4);
 400073c:	e0bffd03 	ldbu	r2,-12(fp)
 4000740:	1004913a 	slli	r2,r2,4
 4000744:	1007883a 	mov	r3,r2
 4000748:	e0bffe17 	ldw	r2,-8(fp)
 400074c:	10c4b03a 	or	r2,r2,r3
 4000750:	e0bffe15 	stw	r2,-8(fp)
	pio_val |= (ones << 0);
 4000754:	e0bffd43 	ldbu	r2,-11(fp)
 4000758:	e0fffe17 	ldw	r3,-8(fp)
 400075c:	1884b03a 	or	r2,r3,r2
 4000760:	e0bffe15 	stw	r2,-8(fp)

	IOWR_ALTERA_AVALON_PIO_DATA(HEX_DIGITS_PIO_BASE, pio_val);
 4000764:	e0fffe17 	ldw	r3,-8(fp)
 4000768:	00820034 	movhi	r2,2048
 400076c:	10845c04 	addi	r2,r2,4464
 4000770:	10c00035 	stwio	r3,0(r2)
}
 4000774:	0001883a 	nop
 4000778:	e037883a 	mov	sp,fp
 400077c:	dfc00117 	ldw	ra,4(sp)
 4000780:	df000017 	ldw	fp,0(sp)
 4000784:	dec00204 	addi	sp,sp,8
 4000788:	f800283a 	ret

0400078c <setKeycode>:

void setKeycode(WORD keycode)
{
 400078c:	defffe04 	addi	sp,sp,-8
 4000790:	df000115 	stw	fp,4(sp)
 4000794:	df000104 	addi	fp,sp,4
 4000798:	2005883a 	mov	r2,r4
 400079c:	e0bfff0d 	sth	r2,-4(fp)
	IOWR_ALTERA_AVALON_PIO_DATA(KEYCODE_BASE, keycode);
 40007a0:	e0ffff0b 	ldhu	r3,-4(fp)
 40007a4:	00820034 	movhi	r2,2048
 40007a8:	10846c04 	addi	r2,r2,4528
 40007ac:	10c00035 	stwio	r3,0(r2)
}
 40007b0:	0001883a 	nop
 40007b4:	e037883a 	mov	sp,fp
 40007b8:	df000017 	ldw	fp,0(sp)
 40007bc:	dec00104 	addi	sp,sp,4
 40007c0:	f800283a 	ret

040007c4 <can_walk>:

int can_walk(int *map, int x, int y)
{
 40007c4:	defff904 	addi	sp,sp,-28
 40007c8:	dfc00615 	stw	ra,24(sp)
 40007cc:	df000515 	stw	fp,20(sp)
 40007d0:	df000504 	addi	fp,sp,20
 40007d4:	e13ffd15 	stw	r4,-12(fp)
 40007d8:	e17ffe15 	stw	r5,-8(fp)
 40007dc:	e1bfff15 	stw	r6,-4(fp)
	if (x == -1 || y == -1 || x == PACMAN_MAP_WIDTH || y == PACMAN_MAP_HEIGHT) {
 40007e0:	e0bffe17 	ldw	r2,-8(fp)
 40007e4:	10bfffe0 	cmpeqi	r2,r2,-1
 40007e8:	1000091e 	bne	r2,zero,4000810 <can_walk+0x4c>
 40007ec:	e0bfff17 	ldw	r2,-4(fp)
 40007f0:	10bfffe0 	cmpeqi	r2,r2,-1
 40007f4:	1000061e 	bne	r2,zero,4000810 <can_walk+0x4c>
 40007f8:	e0bffe17 	ldw	r2,-8(fp)
 40007fc:	10800a20 	cmpeqi	r2,r2,40
 4000800:	1000031e 	bne	r2,zero,4000810 <can_walk+0x4c>
 4000804:	e0bfff17 	ldw	r2,-4(fp)
 4000808:	10800798 	cmpnei	r2,r2,30
 400080c:	1000021e 	bne	r2,zero,4000818 <can_walk+0x54>
		return 0;
 4000810:	0005883a 	mov	r2,zero
 4000814:	00001206 	br	4000860 <can_walk+0x9c>
	}
	int dest_sprite = map_get_sprite(map, x, y);
 4000818:	e1bfff17 	ldw	r6,-4(fp)
 400081c:	e17ffe17 	ldw	r5,-8(fp)
 4000820:	e13ffd17 	ldw	r4,-12(fp)
 4000824:	400147c0 	call	400147c <map_get_sprite>
 4000828:	e0bffb15 	stw	r2,-20(fp)
	int dest_type = sprite_type(dest_sprite);
 400082c:	e13ffb17 	ldw	r4,-20(fp)
 4000830:	40011e40 	call	40011e4 <sprite_type>
 4000834:	e0bffc15 	stw	r2,-16(fp)
	return dest_type != GHOST && dest_type != WALL;
 4000838:	e0bffc17 	ldw	r2,-16(fp)
 400083c:	10804020 	cmpeqi	r2,r2,256
 4000840:	1000051e 	bne	r2,zero,4000858 <can_walk+0x94>
 4000844:	e0bffc17 	ldw	r2,-16(fp)
 4000848:	1080c020 	cmpeqi	r2,r2,768
 400084c:	1000021e 	bne	r2,zero,4000858 <can_walk+0x94>
 4000850:	00800044 	movi	r2,1
 4000854:	00000106 	br	400085c <can_walk+0x98>
 4000858:	0005883a 	mov	r2,zero
 400085c:	0001883a 	nop
}
 4000860:	e037883a 	mov	sp,fp
 4000864:	dfc00117 	ldw	ra,4(sp)
 4000868:	df000017 	ldw	fp,0(sp)
 400086c:	dec00204 	addi	sp,sp,8
 4000870:	f800283a 	ret

04000874 <pacman_task>:

void pacman_task()
{
 4000874:	defffa04 	addi	sp,sp,-24
 4000878:	dfc00515 	stw	ra,20(sp)
 400087c:	df000415 	stw	fp,16(sp)
 4000880:	dc400315 	stw	r17,12(sp)
 4000884:	dc000215 	stw	r16,8(sp)
 4000888:	df000404 	addi	fp,sp,16
	int pacman = map_get_sprite(map, pacman_x, pacman_y);
 400088c:	d0a00117 	ldw	r2,-32764(gp)
 4000890:	d0e00217 	ldw	r3,-32760(gp)
 4000894:	180d883a 	mov	r6,r3
 4000898:	100b883a 	mov	r5,r2
 400089c:	01010074 	movhi	r4,1025
 40008a0:	211fac04 	addi	r4,r4,32432
 40008a4:	400147c0 	call	400147c <map_get_sprite>
 40008a8:	e0bffc15 	stw	r2,-16(fp)
	int pacman_direction = sprite_direction(pacman);
 40008ac:	e13ffc17 	ldw	r4,-16(fp)
 40008b0:	400120c0 	call	400120c <sprite_direction>
 40008b4:	e0bffd15 	stw	r2,-12(fp)

	printf("key: %x\n", key);
 40008b8:	d0a6f303 	ldbu	r2,-25652(gp)
 40008bc:	10803fcc 	andi	r2,r2,255
 40008c0:	100b883a 	mov	r5,r2
 40008c4:	01010074 	movhi	r4,1025
 40008c8:	2110b504 	addi	r4,r4,17108
 40008cc:	40045040 	call	4004504 <printf>
	printf("direction: %x\n", pacman_direction >> SPRITE_DIRECTION_SHIFT);
 40008d0:	e0bffd17 	ldw	r2,-12(fp)
 40008d4:	1005d43a 	srai	r2,r2,16
 40008d8:	100b883a 	mov	r5,r2
 40008dc:	01010074 	movhi	r4,1025
 40008e0:	2110b804 	addi	r4,r4,17120
 40008e4:	40045040 	call	4004504 <printf>

	if (key == ARROW_UP && pacman_direction != UP) {
 40008e8:	d0a6f303 	ldbu	r2,-25652(gp)
 40008ec:	10803fcc 	andi	r2,r2,255
 40008f0:	10801498 	cmpnei	r2,r2,82
 40008f4:	10000e1e 	bne	r2,zero,4000930 <pacman_task+0xbc>
 40008f8:	e0fffd17 	ldw	r3,-12(fp)
 40008fc:	00800074 	movhi	r2,1
 4000900:	18800b26 	beq	r3,r2,4000930 <pacman_task+0xbc>
		map_set_sprite(map, pacman_x, pacman_y, get_sprite(PACMAN | UP));
 4000904:	d4200117 	ldw	r16,-32764(gp)
 4000908:	d4600217 	ldw	r17,-32760(gp)
 400090c:	01000074 	movhi	r4,1
 4000910:	40013ac0 	call	40013ac <get_sprite>
 4000914:	100f883a 	mov	r7,r2
 4000918:	880d883a 	mov	r6,r17
 400091c:	800b883a 	mov	r5,r16
 4000920:	01010074 	movhi	r4,1025
 4000924:	211fac04 	addi	r4,r4,32432
 4000928:	40014dc0 	call	40014dc <map_set_sprite>
 400092c:	00003506 	br	4000a04 <pacman_task+0x190>
	} else if (key == ARROW_DOWN && pacman_direction != DOWN) {
 4000930:	d0a6f303 	ldbu	r2,-25652(gp)
 4000934:	10803fcc 	andi	r2,r2,255
 4000938:	10801458 	cmpnei	r2,r2,81
 400093c:	10000e1e 	bne	r2,zero,4000978 <pacman_task+0x104>
 4000940:	e0fffd17 	ldw	r3,-12(fp)
 4000944:	008000b4 	movhi	r2,2
 4000948:	18800b26 	beq	r3,r2,4000978 <pacman_task+0x104>
		map_set_sprite(map, pacman_x, pacman_y, get_sprite(PACMAN | DOWN));
 400094c:	d4200117 	ldw	r16,-32764(gp)
 4000950:	d4600217 	ldw	r17,-32760(gp)
 4000954:	010000b4 	movhi	r4,2
 4000958:	40013ac0 	call	40013ac <get_sprite>
 400095c:	100f883a 	mov	r7,r2
 4000960:	880d883a 	mov	r6,r17
 4000964:	800b883a 	mov	r5,r16
 4000968:	01010074 	movhi	r4,1025
 400096c:	211fac04 	addi	r4,r4,32432
 4000970:	40014dc0 	call	40014dc <map_set_sprite>
 4000974:	00002306 	br	4000a04 <pacman_task+0x190>
	} else if (key == ARROW_LEFT && pacman_direction != LEFT) {
 4000978:	d0a6f303 	ldbu	r2,-25652(gp)
 400097c:	10803fcc 	andi	r2,r2,255
 4000980:	10801418 	cmpnei	r2,r2,80
 4000984:	10000e1e 	bne	r2,zero,40009c0 <pacman_task+0x14c>
 4000988:	e0fffd17 	ldw	r3,-12(fp)
 400098c:	008000f4 	movhi	r2,3
 4000990:	18800b26 	beq	r3,r2,40009c0 <pacman_task+0x14c>
		map_set_sprite(map, pacman_x, pacman_y, get_sprite(PACMAN | LEFT));
 4000994:	d4200117 	ldw	r16,-32764(gp)
 4000998:	d4600217 	ldw	r17,-32760(gp)
 400099c:	010000f4 	movhi	r4,3
 40009a0:	40013ac0 	call	40013ac <get_sprite>
 40009a4:	100f883a 	mov	r7,r2
 40009a8:	880d883a 	mov	r6,r17
 40009ac:	800b883a 	mov	r5,r16
 40009b0:	01010074 	movhi	r4,1025
 40009b4:	211fac04 	addi	r4,r4,32432
 40009b8:	40014dc0 	call	40014dc <map_set_sprite>
 40009bc:	00001106 	br	4000a04 <pacman_task+0x190>
	} else if (key == ARROW_RIGHT && pacman_direction != RIGHT) {
 40009c0:	d0a6f303 	ldbu	r2,-25652(gp)
 40009c4:	10803fcc 	andi	r2,r2,255
 40009c8:	108013d8 	cmpnei	r2,r2,79
 40009cc:	10000d1e 	bne	r2,zero,4000a04 <pacman_task+0x190>
 40009d0:	e0fffd17 	ldw	r3,-12(fp)
 40009d4:	00800134 	movhi	r2,4
 40009d8:	18800a26 	beq	r3,r2,4000a04 <pacman_task+0x190>
		map_set_sprite(map, pacman_x, pacman_y, get_sprite(PACMAN | RIGHT));
 40009dc:	d4200117 	ldw	r16,-32764(gp)
 40009e0:	d4600217 	ldw	r17,-32760(gp)
 40009e4:	01000134 	movhi	r4,4
 40009e8:	40013ac0 	call	40013ac <get_sprite>
 40009ec:	100f883a 	mov	r7,r2
 40009f0:	880d883a 	mov	r6,r17
 40009f4:	800b883a 	mov	r5,r16
 40009f8:	01010074 	movhi	r4,1025
 40009fc:	211fac04 	addi	r4,r4,32432
 4000a00:	40014dc0 	call	40014dc <map_set_sprite>
	}

	pacman = map_get_sprite(map, pacman_x, pacman_y);
 4000a04:	d0a00117 	ldw	r2,-32764(gp)
 4000a08:	d0e00217 	ldw	r3,-32760(gp)
 4000a0c:	180d883a 	mov	r6,r3
 4000a10:	100b883a 	mov	r5,r2
 4000a14:	01010074 	movhi	r4,1025
 4000a18:	211fac04 	addi	r4,r4,32432
 4000a1c:	400147c0 	call	400147c <map_get_sprite>
 4000a20:	e0bffc15 	stw	r2,-16(fp)
	pacman_direction = sprite_direction(pacman);
 4000a24:	e13ffc17 	ldw	r4,-16(fp)
 4000a28:	400120c0 	call	400120c <sprite_direction>
 4000a2c:	e0bffd15 	stw	r2,-12(fp)

	switch (pacman_direction) {
 4000a30:	e0bffd17 	ldw	r2,-12(fp)
 4000a34:	00c000b4 	movhi	r3,2
 4000a38:	10c02726 	beq	r2,r3,4000ad8 <pacman_task+0x264>
 4000a3c:	00c000b4 	movhi	r3,2
 4000a40:	18800316 	blt	r3,r2,4000a50 <pacman_task+0x1dc>
 4000a44:	00c00074 	movhi	r3,1
 4000a48:	10c00626 	beq	r2,r3,4000a64 <pacman_task+0x1f0>
 4000a4c:	00008006 	br	4000c50 <pacman_task+0x3dc>
 4000a50:	00c000f4 	movhi	r3,3
 4000a54:	10c03d26 	beq	r2,r3,4000b4c <pacman_task+0x2d8>
 4000a58:	00c00134 	movhi	r3,4
 4000a5c:	10c05826 	beq	r2,r3,4000bc0 <pacman_task+0x34c>
 4000a60:	00007b06 	br	4000c50 <pacman_task+0x3dc>
	case UP:
		if (can_walk(map, pacman_x, pacman_y - 1)) {
 4000a64:	d0e00117 	ldw	r3,-32764(gp)
 4000a68:	d0a00217 	ldw	r2,-32760(gp)
 4000a6c:	10bfffc4 	addi	r2,r2,-1
 4000a70:	100d883a 	mov	r6,r2
 4000a74:	180b883a 	mov	r5,r3
 4000a78:	01010074 	movhi	r4,1025
 4000a7c:	211fac04 	addi	r4,r4,32432
 4000a80:	40007c40 	call	40007c4 <can_walk>
 4000a84:	10006b26 	beq	r2,zero,4000c34 <pacman_task+0x3c0>
			map_set_sprite(map, pacman_x, pacman_y, BACKGROUND);
 4000a88:	d0a00117 	ldw	r2,-32764(gp)
 4000a8c:	d0e00217 	ldw	r3,-32760(gp)
 4000a90:	01ffffc4 	movi	r7,-1
 4000a94:	180d883a 	mov	r6,r3
 4000a98:	100b883a 	mov	r5,r2
 4000a9c:	01010074 	movhi	r4,1025
 4000aa0:	211fac04 	addi	r4,r4,32432
 4000aa4:	40014dc0 	call	40014dc <map_set_sprite>
			map_set_sprite(map, pacman_x, --pacman_y, pacman);
 4000aa8:	d0e00117 	ldw	r3,-32764(gp)
 4000aac:	d0a00217 	ldw	r2,-32760(gp)
 4000ab0:	10bfffc4 	addi	r2,r2,-1
 4000ab4:	d0a00215 	stw	r2,-32760(gp)
 4000ab8:	d0a00217 	ldw	r2,-32760(gp)
 4000abc:	e1fffc17 	ldw	r7,-16(fp)
 4000ac0:	100d883a 	mov	r6,r2
 4000ac4:	180b883a 	mov	r5,r3
 4000ac8:	01010074 	movhi	r4,1025
 4000acc:	211fac04 	addi	r4,r4,32432
 4000ad0:	40014dc0 	call	40014dc <map_set_sprite>
		}
		break;
 4000ad4:	00005706 	br	4000c34 <pacman_task+0x3c0>
	case DOWN:
		if (can_walk(map, pacman_x, pacman_y + 1)) {
 4000ad8:	d0e00117 	ldw	r3,-32764(gp)
 4000adc:	d0a00217 	ldw	r2,-32760(gp)
 4000ae0:	10800044 	addi	r2,r2,1
 4000ae4:	100d883a 	mov	r6,r2
 4000ae8:	180b883a 	mov	r5,r3
 4000aec:	01010074 	movhi	r4,1025
 4000af0:	211fac04 	addi	r4,r4,32432
 4000af4:	40007c40 	call	40007c4 <can_walk>
 4000af8:	10005026 	beq	r2,zero,4000c3c <pacman_task+0x3c8>
			map_set_sprite(map, pacman_x, pacman_y, BACKGROUND);
 4000afc:	d0a00117 	ldw	r2,-32764(gp)
 4000b00:	d0e00217 	ldw	r3,-32760(gp)
 4000b04:	01ffffc4 	movi	r7,-1
 4000b08:	180d883a 	mov	r6,r3
 4000b0c:	100b883a 	mov	r5,r2
 4000b10:	01010074 	movhi	r4,1025
 4000b14:	211fac04 	addi	r4,r4,32432
 4000b18:	40014dc0 	call	40014dc <map_set_sprite>
			map_set_sprite(map, pacman_x, ++pacman_y, pacman);
 4000b1c:	d0e00117 	ldw	r3,-32764(gp)
 4000b20:	d0a00217 	ldw	r2,-32760(gp)
 4000b24:	10800044 	addi	r2,r2,1
 4000b28:	d0a00215 	stw	r2,-32760(gp)
 4000b2c:	d0a00217 	ldw	r2,-32760(gp)
 4000b30:	e1fffc17 	ldw	r7,-16(fp)
 4000b34:	100d883a 	mov	r6,r2
 4000b38:	180b883a 	mov	r5,r3
 4000b3c:	01010074 	movhi	r4,1025
 4000b40:	211fac04 	addi	r4,r4,32432
 4000b44:	40014dc0 	call	40014dc <map_set_sprite>
		}
		break;
 4000b48:	00003c06 	br	4000c3c <pacman_task+0x3c8>
	case LEFT:
		if (can_walk(map, pacman_x - 1, pacman_y)) {
 4000b4c:	d0a00117 	ldw	r2,-32764(gp)
 4000b50:	10bfffc4 	addi	r2,r2,-1
 4000b54:	d0e00217 	ldw	r3,-32760(gp)
 4000b58:	180d883a 	mov	r6,r3
 4000b5c:	100b883a 	mov	r5,r2
 4000b60:	01010074 	movhi	r4,1025
 4000b64:	211fac04 	addi	r4,r4,32432
 4000b68:	40007c40 	call	40007c4 <can_walk>
 4000b6c:	10003526 	beq	r2,zero,4000c44 <pacman_task+0x3d0>
			map_set_sprite(map, pacman_x, pacman_y, BACKGROUND);
 4000b70:	d0a00117 	ldw	r2,-32764(gp)
 4000b74:	d0e00217 	ldw	r3,-32760(gp)
 4000b78:	01ffffc4 	movi	r7,-1
 4000b7c:	180d883a 	mov	r6,r3
 4000b80:	100b883a 	mov	r5,r2
 4000b84:	01010074 	movhi	r4,1025
 4000b88:	211fac04 	addi	r4,r4,32432
 4000b8c:	40014dc0 	call	40014dc <map_set_sprite>
			map_set_sprite(map, --pacman_x, pacman_y, pacman);
 4000b90:	d0a00117 	ldw	r2,-32764(gp)
 4000b94:	10bfffc4 	addi	r2,r2,-1
 4000b98:	d0a00115 	stw	r2,-32764(gp)
 4000b9c:	d0a00117 	ldw	r2,-32764(gp)
 4000ba0:	d0e00217 	ldw	r3,-32760(gp)
 4000ba4:	e1fffc17 	ldw	r7,-16(fp)
 4000ba8:	180d883a 	mov	r6,r3
 4000bac:	100b883a 	mov	r5,r2
 4000bb0:	01010074 	movhi	r4,1025
 4000bb4:	211fac04 	addi	r4,r4,32432
 4000bb8:	40014dc0 	call	40014dc <map_set_sprite>
		}
		break;
 4000bbc:	00002106 	br	4000c44 <pacman_task+0x3d0>
	case RIGHT:
		if (can_walk(map, pacman_x + 1, pacman_y)) {
 4000bc0:	d0a00117 	ldw	r2,-32764(gp)
 4000bc4:	10800044 	addi	r2,r2,1
 4000bc8:	d0e00217 	ldw	r3,-32760(gp)
 4000bcc:	180d883a 	mov	r6,r3
 4000bd0:	100b883a 	mov	r5,r2
 4000bd4:	01010074 	movhi	r4,1025
 4000bd8:	211fac04 	addi	r4,r4,32432
 4000bdc:	40007c40 	call	40007c4 <can_walk>
 4000be0:	10001a26 	beq	r2,zero,4000c4c <pacman_task+0x3d8>
			map_set_sprite(map, pacman_x, pacman_y, BACKGROUND);
 4000be4:	d0a00117 	ldw	r2,-32764(gp)
 4000be8:	d0e00217 	ldw	r3,-32760(gp)
 4000bec:	01ffffc4 	movi	r7,-1
 4000bf0:	180d883a 	mov	r6,r3
 4000bf4:	100b883a 	mov	r5,r2
 4000bf8:	01010074 	movhi	r4,1025
 4000bfc:	211fac04 	addi	r4,r4,32432
 4000c00:	40014dc0 	call	40014dc <map_set_sprite>
			map_set_sprite(map, ++pacman_x, pacman_y, pacman);
 4000c04:	d0a00117 	ldw	r2,-32764(gp)
 4000c08:	10800044 	addi	r2,r2,1
 4000c0c:	d0a00115 	stw	r2,-32764(gp)
 4000c10:	d0a00117 	ldw	r2,-32764(gp)
 4000c14:	d0e00217 	ldw	r3,-32760(gp)
 4000c18:	e1fffc17 	ldw	r7,-16(fp)
 4000c1c:	180d883a 	mov	r6,r3
 4000c20:	100b883a 	mov	r5,r2
 4000c24:	01010074 	movhi	r4,1025
 4000c28:	211fac04 	addi	r4,r4,32432
 4000c2c:	40014dc0 	call	40014dc <map_set_sprite>
		}
		break;
 4000c30:	00000606 	br	4000c4c <pacman_task+0x3d8>
	case UP:
		if (can_walk(map, pacman_x, pacman_y - 1)) {
			map_set_sprite(map, pacman_x, pacman_y, BACKGROUND);
			map_set_sprite(map, pacman_x, --pacman_y, pacman);
		}
		break;
 4000c34:	0001883a 	nop
 4000c38:	00000506 	br	4000c50 <pacman_task+0x3dc>
	case DOWN:
		if (can_walk(map, pacman_x, pacman_y + 1)) {
			map_set_sprite(map, pacman_x, pacman_y, BACKGROUND);
			map_set_sprite(map, pacman_x, ++pacman_y, pacman);
		}
		break;
 4000c3c:	0001883a 	nop
 4000c40:	00000306 	br	4000c50 <pacman_task+0x3dc>
	case LEFT:
		if (can_walk(map, pacman_x - 1, pacman_y)) {
			map_set_sprite(map, pacman_x, pacman_y, BACKGROUND);
			map_set_sprite(map, --pacman_x, pacman_y, pacman);
		}
		break;
 4000c44:	0001883a 	nop
 4000c48:	00000106 	br	4000c50 <pacman_task+0x3dc>
	case RIGHT:
		if (can_walk(map, pacman_x + 1, pacman_y)) {
			map_set_sprite(map, pacman_x, pacman_y, BACKGROUND);
			map_set_sprite(map, ++pacman_x, pacman_y, pacman);
		}
		break;
 4000c4c:	0001883a 	nop
	}

	animate_map(map);
 4000c50:	01010074 	movhi	r4,1025
 4000c54:	211fac04 	addi	r4,r4,32432
 4000c58:	40016ac0 	call	40016ac <animate_map>
	spu_set_map(map);
 4000c5c:	01010074 	movhi	r4,1025
 4000c60:	211fac04 	addi	r4,r4,32432
 4000c64:	40021040 	call	4002104 <spu_set_map>
}
 4000c68:	0001883a 	nop
 4000c6c:	e6fffe04 	addi	sp,fp,-8
 4000c70:	dfc00317 	ldw	ra,12(sp)
 4000c74:	df000217 	ldw	fp,8(sp)
 4000c78:	dc400117 	ldw	r17,4(sp)
 4000c7c:	dc000017 	ldw	r16,0(sp)
 4000c80:	dec00404 	addi	sp,sp,16
 4000c84:	f800283a 	ret

04000c88 <main>:

int main()
{
 4000c88:	defff404 	addi	sp,sp,-48
 4000c8c:	dfc00b15 	stw	ra,44(sp)
 4000c90:	df000a15 	stw	fp,40(sp)
 4000c94:	dc400915 	stw	r17,36(sp)
 4000c98:	dc000815 	stw	r16,32(sp)
 4000c9c:	df000a04 	addi	fp,sp,40
	srand (time(NULL));
 4000ca0:	0009883a 	mov	r4,zero
 4000ca4:	40047480 	call	4004748 <time>
 4000ca8:	1009883a 	mov	r4,r2
 4000cac:	40046340 	call	4004634 <srand>

	BYTE rcode;
	BOOT_MOUSE_REPORT buf;		//USB mouse report
	BOOT_KBD_REPORT kbdbuf;

	BYTE runningdebugflag = 0;//flag to dump out a bunch of information when we first get to USB_STATE_RUNNING
 4000cb0:	e03ff605 	stb	zero,-40(fp)
	BYTE errorflag = 0; //flag once we get an error device so we don't keep dumping out state info
 4000cb4:	e03ff645 	stb	zero,-39(fp)
	BYTE device;
	WORD keycode;

	MAX3421E_init();
 4000cb8:	40031380 	call	4003138 <MAX3421E_init>
	USB_init();
 4000cbc:	40038ec0 	call	40038ec <USB_init>

	printf("PacPac\n");
 4000cc0:	01010074 	movhi	r4,1025
 4000cc4:	2110bc04 	addi	r4,r4,17136
 4000cc8:	40046200 	call	4004620 <puts>
	random_walls(map);
 4000ccc:	01010074 	movhi	r4,1025
 4000cd0:	211fac04 	addi	r4,r4,32432
 4000cd4:	40019100 	call	4001910 <random_walls>
	// test_map(map);
	map_set_sprite(map, pacman_x, pacman_y, get_sprite(PACMAN));
 4000cd8:	d4200117 	ldw	r16,-32764(gp)
 4000cdc:	d4600217 	ldw	r17,-32760(gp)
 4000ce0:	0009883a 	mov	r4,zero
 4000ce4:	40013ac0 	call	40013ac <get_sprite>
 4000ce8:	100f883a 	mov	r7,r2
 4000cec:	880d883a 	mov	r6,r17
 4000cf0:	800b883a 	mov	r5,r16
 4000cf4:	01010074 	movhi	r4,1025
 4000cf8:	211fac04 	addi	r4,r4,32432
 4000cfc:	40014dc0 	call	40014dc <map_set_sprite>
	map_set_sprite(map, red_ghost_x, red_ghost_y, get_sprite(RED | GHOST | LEFT));
 4000d00:	d4200317 	ldw	r16,-32756(gp)
 4000d04:	d4600417 	ldw	r17,-32752(gp)
 4000d08:	010000f4 	movhi	r4,3
 4000d0c:	210c4004 	addi	r4,r4,12544
 4000d10:	40013ac0 	call	40013ac <get_sprite>
 4000d14:	100f883a 	mov	r7,r2
 4000d18:	880d883a 	mov	r6,r17
 4000d1c:	800b883a 	mov	r5,r16
 4000d20:	01010074 	movhi	r4,1025
 4000d24:	211fac04 	addi	r4,r4,32432
 4000d28:	40014dc0 	call	40014dc <map_set_sprite>
	map_set_sprite(map, pink_ghost_x, pink_ghost_y, get_sprite(PINK | GHOST | UP));
 4000d2c:	d4200517 	ldw	r16,-32748(gp)
 4000d30:	d4600617 	ldw	r17,-32744(gp)
 4000d34:	01000074 	movhi	r4,1
 4000d38:	21104004 	addi	r4,r4,16640
 4000d3c:	40013ac0 	call	40013ac <get_sprite>
 4000d40:	100f883a 	mov	r7,r2
 4000d44:	880d883a 	mov	r6,r17
 4000d48:	800b883a 	mov	r5,r16
 4000d4c:	01010074 	movhi	r4,1025
 4000d50:	211fac04 	addi	r4,r4,32432
 4000d54:	40014dc0 	call	40014dc <map_set_sprite>
	map_set_sprite(map, cyan_ghost_x, cyan_ghost_y, get_sprite(CYAN | GHOST | UP));
 4000d58:	d4200717 	ldw	r16,-32740(gp)
 4000d5c:	d4600817 	ldw	r17,-32736(gp)
 4000d60:	01000074 	movhi	r4,1
 4000d64:	21144004 	addi	r4,r4,20736
 4000d68:	40013ac0 	call	40013ac <get_sprite>
 4000d6c:	100f883a 	mov	r7,r2
 4000d70:	880d883a 	mov	r6,r17
 4000d74:	800b883a 	mov	r5,r16
 4000d78:	01010074 	movhi	r4,1025
 4000d7c:	211fac04 	addi	r4,r4,32432
 4000d80:	40014dc0 	call	40014dc <map_set_sprite>
	map_set_sprite(map, teal_ghost_x, teal_ghost_y, get_sprite(TEAL | GHOST | UP));
 4000d84:	d4200917 	ldw	r16,-32732(gp)
 4000d88:	d4600a17 	ldw	r17,-32728(gp)
 4000d8c:	01000074 	movhi	r4,1
 4000d90:	21184004 	addi	r4,r4,24832
 4000d94:	40013ac0 	call	40013ac <get_sprite>
 4000d98:	100f883a 	mov	r7,r2
 4000d9c:	880d883a 	mov	r6,r17
 4000da0:	800b883a 	mov	r5,r16
 4000da4:	01010074 	movhi	r4,1025
 4000da8:	211fac04 	addi	r4,r4,32432
 4000dac:	40014dc0 	call	40014dc <map_set_sprite>
	spu_set_map(map);
 4000db0:	01010074 	movhi	r4,1025
 4000db4:	211fac04 	addi	r4,r4,32432
 4000db8:	40021040 	call	4002104 <spu_set_map>

	for (int i = 0; ; ++i) {
 4000dbc:	e03ff715 	stw	zero,-36(fp)
		MAX3421E_Task();
 4000dc0:	40031cc0 	call	40031cc <MAX3421E_Task>
		USB_Task();
 4000dc4:	40039840 	call	4003984 <USB_Task>
		pacman_task();
 4000dc8:	40008740 	call	4000874 <pacman_task>
		//usleep (500000);
		if (GetUsbTaskState() == USB_STATE_RUNNING) {
 4000dcc:	40040f40 	call	40040f4 <GetUsbTaskState>
 4000dd0:	10803fcc 	andi	r2,r2,255
 4000dd4:	10801018 	cmpnei	r2,r2,64
 4000dd8:	1000a11e 	bne	r2,zero,4001060 <main+0x3d8>
			if (!runningdebugflag) {
 4000ddc:	e0bff603 	ldbu	r2,-40(fp)
 4000de0:	1000071e 	bne	r2,zero,4000e00 <main+0x178>
				runningdebugflag = 1;
 4000de4:	00800044 	movi	r2,1
 4000de8:	e0bff605 	stb	r2,-40(fp)
				setLED(9);
 4000dec:	01000244 	movi	r4,9
 4000df0:	40004900 	call	4000490 <setLED>
				device = GetDriverandReport();
 4000df4:	40002a00 	call	40002a0 <GetDriverandReport>
 4000df8:	e0bff685 	stb	r2,-38(fp)
 4000dfc:	0000bb06 	br	40010ec <main+0x464>
			} else if (device == 1) {
 4000e00:	e0bff683 	ldbu	r2,-38(fp)
 4000e04:	10800058 	cmpnei	r2,r2,1
 4000e08:	1000391e 	bne	r2,zero,4000ef0 <main+0x268>
				//run keyboard debug polling
				rcode = kbdPoll(&kbdbuf);
 4000e0c:	e0bffb84 	addi	r2,fp,-18
 4000e10:	1009883a 	mov	r4,r2
 4000e14:	4002a880 	call	4002a88 <kbdPoll>
 4000e18:	e0bff905 	stb	r2,-28(fp)
				if (rcode == hrNAK) {
 4000e1c:	e0bff903 	ldbu	r2,-28(fp)
 4000e20:	10800118 	cmpnei	r2,r2,4
 4000e24:	1000ae26 	beq	r2,zero,40010e0 <main+0x458>
					continue; //NAK means no new data
				} else if (rcode) {
 4000e28:	e0bff903 	ldbu	r2,-28(fp)
 4000e2c:	10000926 	beq	r2,zero,4000e54 <main+0x1cc>
					printf("Rcode: ");
 4000e30:	01010074 	movhi	r4,1025
 4000e34:	2110be04 	addi	r4,r4,17144
 4000e38:	40045040 	call	4004504 <printf>
					printf("%x \n", rcode);
 4000e3c:	e0bff903 	ldbu	r2,-28(fp)
 4000e40:	100b883a 	mov	r5,r2
 4000e44:	01010074 	movhi	r4,1025
 4000e48:	2110a304 	addi	r4,r4,17036
 4000e4c:	40045040 	call	4004504 <printf>
					continue;
 4000e50:	0000a606 	br	40010ec <main+0x464>
				}
				printf("keycodes: ");
 4000e54:	01010074 	movhi	r4,1025
 4000e58:	2110c004 	addi	r4,r4,17152
 4000e5c:	40045040 	call	4004504 <printf>
				for (int n = 0; n < 6; n++) {
 4000e60:	e03ff815 	stw	zero,-32(fp)
 4000e64:	00000c06 	br	4000e98 <main+0x210>
					printf("%x ", kbdbuf.keycode[n]);
 4000e68:	e0fffc04 	addi	r3,fp,-16
 4000e6c:	e0bff817 	ldw	r2,-32(fp)
 4000e70:	1885883a 	add	r2,r3,r2
 4000e74:	10800003 	ldbu	r2,0(r2)
 4000e78:	10803fcc 	andi	r2,r2,255
 4000e7c:	100b883a 	mov	r5,r2
 4000e80:	01010074 	movhi	r4,1025
 4000e84:	2110c304 	addi	r4,r4,17164
 4000e88:	40045040 	call	4004504 <printf>
					printf("Rcode: ");
					printf("%x \n", rcode);
					continue;
				}
				printf("keycodes: ");
				for (int n = 0; n < 6; n++) {
 4000e8c:	e0bff817 	ldw	r2,-32(fp)
 4000e90:	10800044 	addi	r2,r2,1
 4000e94:	e0bff815 	stw	r2,-32(fp)
 4000e98:	e0bff817 	ldw	r2,-32(fp)
 4000e9c:	10800190 	cmplti	r2,r2,6
 4000ea0:	103ff11e 	bne	r2,zero,4000e68 <__alt_data_end+0xfc000e68>
					printf("%x ", kbdbuf.keycode[n]);
				}
				BYTE temp = kbdbuf.keycode[0];
 4000ea4:	e0bffc03 	ldbu	r2,-16(fp)
 4000ea8:	e0bff945 	stb	r2,-27(fp)
				if (temp == 0x52 || temp == 0x51 || temp == 0x50 || temp == 0x4f)
 4000eac:	e0bff943 	ldbu	r2,-27(fp)
 4000eb0:	108014a0 	cmpeqi	r2,r2,82
 4000eb4:	1000091e 	bne	r2,zero,4000edc <main+0x254>
 4000eb8:	e0bff943 	ldbu	r2,-27(fp)
 4000ebc:	10801460 	cmpeqi	r2,r2,81
 4000ec0:	1000061e 	bne	r2,zero,4000edc <main+0x254>
 4000ec4:	e0bff943 	ldbu	r2,-27(fp)
 4000ec8:	10801420 	cmpeqi	r2,r2,80
 4000ecc:	1000031e 	bne	r2,zero,4000edc <main+0x254>
 4000ed0:	e0bff943 	ldbu	r2,-27(fp)
 4000ed4:	108013d8 	cmpnei	r2,r2,79
 4000ed8:	1000021e 	bne	r2,zero,4000ee4 <main+0x25c>
					key = temp;
 4000edc:	e0bff943 	ldbu	r2,-27(fp)
 4000ee0:	d0a6f305 	stb	r2,-25652(gp)
//				setKeycode(kbdbuf.keycode[0]);
//				printSignedHex0(kbdbuf.keycode[0]);
//				printSignedHex1(kbdbuf.keycode[1]);
				printf("\n");
 4000ee4:	01000284 	movi	r4,10
 4000ee8:	40045480 	call	4004548 <putchar>
 4000eec:	00007f06 	br	40010ec <main+0x464>
			}

			else if (device == 2) {
 4000ef0:	e0bff683 	ldbu	r2,-38(fp)
 4000ef4:	10800098 	cmpnei	r2,r2,2
 4000ef8:	10007c1e 	bne	r2,zero,40010ec <main+0x464>
				rcode = mousePoll(&buf);
 4000efc:	e0bff984 	addi	r2,fp,-26
 4000f00:	1009883a 	mov	r4,r2
 4000f04:	4002a000 	call	4002a00 <mousePoll>
 4000f08:	e0bff905 	stb	r2,-28(fp)
				if (rcode == hrNAK) {
 4000f0c:	e0bff903 	ldbu	r2,-28(fp)
 4000f10:	10800118 	cmpnei	r2,r2,4
 4000f14:	10007426 	beq	r2,zero,40010e8 <main+0x460>
					//NAK means no new data
					continue;
				} else if (rcode) {
 4000f18:	e0bff903 	ldbu	r2,-28(fp)
 4000f1c:	10000926 	beq	r2,zero,4000f44 <main+0x2bc>
					printf("Rcode: ");
 4000f20:	01010074 	movhi	r4,1025
 4000f24:	2110be04 	addi	r4,r4,17144
 4000f28:	40045040 	call	4004504 <printf>
					printf("%x \n", rcode);
 4000f2c:	e0bff903 	ldbu	r2,-28(fp)
 4000f30:	100b883a 	mov	r5,r2
 4000f34:	01010074 	movhi	r4,1025
 4000f38:	2110a304 	addi	r4,r4,17036
 4000f3c:	40045040 	call	4004504 <printf>
					continue;
 4000f40:	00006a06 	br	40010ec <main+0x464>
				}
				printf("X displacement: ");
 4000f44:	01010074 	movhi	r4,1025
 4000f48:	2110c404 	addi	r4,r4,17168
 4000f4c:	40045040 	call	4004504 <printf>
				printf("%d ", (signed char) buf.Xdispl);
 4000f50:	e0bff9c3 	ldbu	r2,-25(fp)
 4000f54:	10803fcc 	andi	r2,r2,255
 4000f58:	1080201c 	xori	r2,r2,128
 4000f5c:	10bfe004 	addi	r2,r2,-128
 4000f60:	100b883a 	mov	r5,r2
 4000f64:	01010074 	movhi	r4,1025
 4000f68:	2110c904 	addi	r4,r4,17188
 4000f6c:	40045040 	call	4004504 <printf>
				printSignedHex0((signed char) buf.Xdispl);
 4000f70:	e0bff9c3 	ldbu	r2,-25(fp)
 4000f74:	10803fcc 	andi	r2,r2,255
 4000f78:	1080201c 	xori	r2,r2,128
 4000f7c:	10bfe004 	addi	r2,r2,-128
 4000f80:	1009883a 	mov	r4,r2
 4000f84:	400052c0 	call	400052c <printSignedHex0>
				printf("Y displacement: ");
 4000f88:	01010074 	movhi	r4,1025
 4000f8c:	2110ca04 	addi	r4,r4,17192
 4000f90:	40045040 	call	4004504 <printf>
				printf("%d ", (signed char) buf.Ydispl);
 4000f94:	e0bffa03 	ldbu	r2,-24(fp)
 4000f98:	10803fcc 	andi	r2,r2,255
 4000f9c:	1080201c 	xori	r2,r2,128
 4000fa0:	10bfe004 	addi	r2,r2,-128
 4000fa4:	100b883a 	mov	r5,r2
 4000fa8:	01010074 	movhi	r4,1025
 4000fac:	2110c904 	addi	r4,r4,17188
 4000fb0:	40045040 	call	4004504 <printf>
				printSignedHex1((signed char) buf.Ydispl);
 4000fb4:	e0bffa03 	ldbu	r2,-24(fp)
 4000fb8:	10803fcc 	andi	r2,r2,255
 4000fbc:	1080201c 	xori	r2,r2,128
 4000fc0:	10bfe004 	addi	r2,r2,-128
 4000fc4:	1009883a 	mov	r4,r2
 4000fc8:	400064c0 	call	400064c <printSignedHex1>
				printf("Buttons: ");
 4000fcc:	01010074 	movhi	r4,1025
 4000fd0:	2110cf04 	addi	r4,r4,17212
 4000fd4:	40045040 	call	4004504 <printf>
				printf("%x\n", buf.button);
 4000fd8:	e0bff983 	ldbu	r2,-26(fp)
 4000fdc:	10803fcc 	andi	r2,r2,255
 4000fe0:	100b883a 	mov	r5,r2
 4000fe4:	01010074 	movhi	r4,1025
 4000fe8:	2110d204 	addi	r4,r4,17224
 4000fec:	40045040 	call	4004504 <printf>
				if (buf.button & 0x04)
 4000ff0:	e0bff983 	ldbu	r2,-26(fp)
 4000ff4:	10803fcc 	andi	r2,r2,255
 4000ff8:	1080010c 	andi	r2,r2,4
 4000ffc:	10000326 	beq	r2,zero,400100c <main+0x384>
					setLED(2);
 4001000:	01000084 	movi	r4,2
 4001004:	40004900 	call	4000490 <setLED>
 4001008:	00000206 	br	4001014 <main+0x38c>
				else
					clearLED(2);
 400100c:	01000084 	movi	r4,2
 4001010:	40004dc0 	call	40004dc <clearLED>
				if (buf.button & 0x02)
 4001014:	e0bff983 	ldbu	r2,-26(fp)
 4001018:	10803fcc 	andi	r2,r2,255
 400101c:	1080008c 	andi	r2,r2,2
 4001020:	10000326 	beq	r2,zero,4001030 <main+0x3a8>
					setLED(1);
 4001024:	01000044 	movi	r4,1
 4001028:	40004900 	call	4000490 <setLED>
 400102c:	00000206 	br	4001038 <main+0x3b0>
				else
					clearLED(1);
 4001030:	01000044 	movi	r4,1
 4001034:	40004dc0 	call	40004dc <clearLED>
				if (buf.button & 0x01)
 4001038:	e0bff983 	ldbu	r2,-26(fp)
 400103c:	10803fcc 	andi	r2,r2,255
 4001040:	1080004c 	andi	r2,r2,1
 4001044:	10000326 	beq	r2,zero,4001054 <main+0x3cc>
					setLED(0);
 4001048:	0009883a 	mov	r4,zero
 400104c:	40004900 	call	4000490 <setLED>
 4001050:	00002606 	br	40010ec <main+0x464>
				else
					clearLED(0);
 4001054:	0009883a 	mov	r4,zero
 4001058:	40004dc0 	call	40004dc <clearLED>
 400105c:	00002306 	br	40010ec <main+0x464>
			}
		} else if (GetUsbTaskState() == USB_STATE_ERROR) {
 4001060:	40040f40 	call	40040f4 <GetUsbTaskState>
 4001064:	10803fcc 	andi	r2,r2,255
 4001068:	10803fd8 	cmpnei	r2,r2,255
 400106c:	10000a1e 	bne	r2,zero,4001098 <main+0x410>
			if (!errorflag) {
 4001070:	e0bff643 	ldbu	r2,-39(fp)
 4001074:	10001d1e 	bne	r2,zero,40010ec <main+0x464>
				errorflag = 1;
 4001078:	00800044 	movi	r2,1
 400107c:	e0bff645 	stb	r2,-39(fp)
				clearLED(9);
 4001080:	01000244 	movi	r4,9
 4001084:	40004dc0 	call	40004dc <clearLED>
				printf("USB Error State\n");
 4001088:	01010074 	movhi	r4,1025
 400108c:	2110d304 	addi	r4,r4,17228
 4001090:	40046200 	call	4004620 <puts>
 4001094:	00001506 	br	40010ec <main+0x464>
				//print out string descriptor here
			}
		} else { //not in USB running state
			printf("USB task state: ");
 4001098:	01010074 	movhi	r4,1025
 400109c:	2110d704 	addi	r4,r4,17244
 40010a0:	40045040 	call	4004504 <printf>
			printf("%x\n", GetUsbTaskState());
 40010a4:	40040f40 	call	40040f4 <GetUsbTaskState>
 40010a8:	10803fcc 	andi	r2,r2,255
 40010ac:	100b883a 	mov	r5,r2
 40010b0:	01010074 	movhi	r4,1025
 40010b4:	2110d204 	addi	r4,r4,17224
 40010b8:	40045040 	call	4004504 <printf>
			if (runningdebugflag) {	//previously running, reset USB hardware just to clear out any funky state, HS/FS etc
 40010bc:	e0bff603 	ldbu	r2,-40(fp)
 40010c0:	10000326 	beq	r2,zero,40010d0 <main+0x448>
				runningdebugflag = 0;
 40010c4:	e03ff605 	stb	zero,-40(fp)
				MAX3421E_init();
 40010c8:	40031380 	call	4003138 <MAX3421E_init>
				USB_init();
 40010cc:	40038ec0 	call	40038ec <USB_init>
			}
			errorflag = 0;
 40010d0:	e03ff645 	stb	zero,-39(fp)
			clearLED(9);
 40010d4:	01000244 	movi	r4,9
 40010d8:	40004dc0 	call	40004dc <clearLED>
 40010dc:	00000306 	br	40010ec <main+0x464>
				device = GetDriverandReport();
			} else if (device == 1) {
				//run keyboard debug polling
				rcode = kbdPoll(&kbdbuf);
				if (rcode == hrNAK) {
					continue; //NAK means no new data
 40010e0:	0001883a 	nop
 40010e4:	00000106 	br	40010ec <main+0x464>

			else if (device == 2) {
				rcode = mousePoll(&buf);
				if (rcode == hrNAK) {
					//NAK means no new data
					continue;
 40010e8:	0001883a 	nop
	map_set_sprite(map, pink_ghost_x, pink_ghost_y, get_sprite(PINK | GHOST | UP));
	map_set_sprite(map, cyan_ghost_x, cyan_ghost_y, get_sprite(CYAN | GHOST | UP));
	map_set_sprite(map, teal_ghost_x, teal_ghost_y, get_sprite(TEAL | GHOST | UP));
	spu_set_map(map);

	for (int i = 0; ; ++i) {
 40010ec:	e0bff717 	ldw	r2,-36(fp)
 40010f0:	10800044 	addi	r2,r2,1
 40010f4:	e0bff715 	stw	r2,-36(fp)
				USB_init();
			}
			errorflag = 0;
			clearLED(9);
		}
	}
 40010f8:	003f3106 	br	4000dc0 <__alt_data_end+0xfc000dc0>

040010fc <spawn_all_sprites>:
 */

#include "pacman.h"

void spawn_all_sprites(int *map)
{
 40010fc:	defff904 	addi	sp,sp,-28
 4001100:	dfc00615 	stw	ra,24(sp)
 4001104:	df000515 	stw	fp,20(sp)
 4001108:	dc000415 	stw	r16,16(sp)
 400110c:	df000504 	addi	fp,sp,20
 4001110:	e13ffe15 	stw	r4,-8(fp)
	int count = 0;
 4001114:	e03ffb15 	stw	zero,-20(fp)
	for (int y = 0; y < PACMAN_MAP_HEIGHT; ++y) {
 4001118:	e03ffc15 	stw	zero,-16(fp)
 400111c:	00001d06 	br	4001194 <spawn_all_sprites+0x98>
		for (int x = 0; x < PACMAN_MAP_WIDTH; ++x) {
 4001120:	e03ffd15 	stw	zero,-12(fp)
 4001124:	00001506 	br	400117c <spawn_all_sprites+0x80>
			map[y * PACMAN_MAP_WIDTH + x] = (count++) % SPRITE_COUNT;
 4001128:	01400a04 	movi	r5,40
 400112c:	e13ffc17 	ldw	r4,-16(fp)
 4001130:	40043840 	call	4004384 <__mulsi3>
 4001134:	1007883a 	mov	r3,r2
 4001138:	e0bffd17 	ldw	r2,-12(fp)
 400113c:	1885883a 	add	r2,r3,r2
 4001140:	1085883a 	add	r2,r2,r2
 4001144:	1085883a 	add	r2,r2,r2
 4001148:	1007883a 	mov	r3,r2
 400114c:	e0bffe17 	ldw	r2,-8(fp)
 4001150:	10e1883a 	add	r16,r2,r3
 4001154:	e0bffb17 	ldw	r2,-20(fp)
 4001158:	10c00044 	addi	r3,r2,1
 400115c:	e0fffb15 	stw	r3,-20(fp)
 4001160:	01400d04 	movi	r5,52
 4001164:	1009883a 	mov	r4,r2
 4001168:	40042540 	call	4004254 <__modsi3>
 400116c:	80800015 	stw	r2,0(r16)

void spawn_all_sprites(int *map)
{
	int count = 0;
	for (int y = 0; y < PACMAN_MAP_HEIGHT; ++y) {
		for (int x = 0; x < PACMAN_MAP_WIDTH; ++x) {
 4001170:	e0bffd17 	ldw	r2,-12(fp)
 4001174:	10800044 	addi	r2,r2,1
 4001178:	e0bffd15 	stw	r2,-12(fp)
 400117c:	e0bffd17 	ldw	r2,-12(fp)
 4001180:	10800a10 	cmplti	r2,r2,40
 4001184:	103fe81e 	bne	r2,zero,4001128 <__alt_data_end+0xfc001128>
#include "pacman.h"

void spawn_all_sprites(int *map)
{
	int count = 0;
	for (int y = 0; y < PACMAN_MAP_HEIGHT; ++y) {
 4001188:	e0bffc17 	ldw	r2,-16(fp)
 400118c:	10800044 	addi	r2,r2,1
 4001190:	e0bffc15 	stw	r2,-16(fp)
 4001194:	e0bffc17 	ldw	r2,-16(fp)
 4001198:	10800790 	cmplti	r2,r2,30
 400119c:	103fe01e 	bne	r2,zero,4001120 <__alt_data_end+0xfc001120>
		for (int x = 0; x < PACMAN_MAP_WIDTH; ++x) {
			map[y * PACMAN_MAP_WIDTH + x] = (count++) % SPRITE_COUNT;
		}
	}
}
 40011a0:	0001883a 	nop
 40011a4:	e6ffff04 	addi	sp,fp,-4
 40011a8:	dfc00217 	ldw	ra,8(sp)
 40011ac:	df000117 	ldw	fp,4(sp)
 40011b0:	dc000017 	ldw	r16,0(sp)
 40011b4:	dec00304 	addi	sp,sp,12
 40011b8:	f800283a 	ret

040011bc <sprite_index>:

int sprite_index(int sprite)
{
 40011bc:	defffe04 	addi	sp,sp,-8
 40011c0:	df000115 	stw	fp,4(sp)
 40011c4:	df000104 	addi	fp,sp,4
 40011c8:	e13fff15 	stw	r4,-4(fp)
	return SPRITE_INDEX_MASK & sprite;
 40011cc:	e0bfff17 	ldw	r2,-4(fp)
 40011d0:	10803fcc 	andi	r2,r2,255
}
 40011d4:	e037883a 	mov	sp,fp
 40011d8:	df000017 	ldw	fp,0(sp)
 40011dc:	dec00104 	addi	sp,sp,4
 40011e0:	f800283a 	ret

040011e4 <sprite_type>:

int sprite_type(int sprite)
{
 40011e4:	defffe04 	addi	sp,sp,-8
 40011e8:	df000115 	stw	fp,4(sp)
 40011ec:	df000104 	addi	fp,sp,4
 40011f0:	e13fff15 	stw	r4,-4(fp)
	return SPRITE_TYPE_MASK & sprite;
 40011f4:	e0bfff17 	ldw	r2,-4(fp)
 40011f8:	1083c00c 	andi	r2,r2,3840
}
 40011fc:	e037883a 	mov	sp,fp
 4001200:	df000017 	ldw	fp,0(sp)
 4001204:	dec00104 	addi	sp,sp,4
 4001208:	f800283a 	ret

0400120c <sprite_direction>:

int sprite_direction(int sprite)
{
 400120c:	defffe04 	addi	sp,sp,-8
 4001210:	df000115 	stw	fp,4(sp)
 4001214:	df000104 	addi	fp,sp,4
 4001218:	e13fff15 	stw	r4,-4(fp)
	return SPRITE_DIRECTION_MASK & sprite;
 400121c:	e0bfff17 	ldw	r2,-4(fp)
 4001220:	108003ec 	andhi	r2,r2,15
}
 4001224:	e037883a 	mov	sp,fp
 4001228:	df000017 	ldw	fp,0(sp)
 400122c:	dec00104 	addi	sp,sp,4
 4001230:	f800283a 	ret

04001234 <sprite_property>:

int sprite_property(int sprite)
{
 4001234:	defffe04 	addi	sp,sp,-8
 4001238:	df000115 	stw	fp,4(sp)
 400123c:	df000104 	addi	fp,sp,4
 4001240:	e13fff15 	stw	r4,-4(fp)
	return SPRITE_PROPERTY_MASK & sprite;
 4001244:	e0bfff17 	ldw	r2,-4(fp)
 4001248:	10bc000c 	andi	r2,r2,61440
}
 400124c:	e037883a 	mov	sp,fp
 4001250:	df000017 	ldw	fp,0(sp)
 4001254:	dec00104 	addi	sp,sp,4
 4001258:	f800283a 	ret

0400125c <get_pacman>:

int get_pacman(int pacman)
{
 400125c:	defffd04 	addi	sp,sp,-12
 4001260:	dfc00215 	stw	ra,8(sp)
 4001264:	df000115 	stw	fp,4(sp)
 4001268:	df000104 	addi	fp,sp,4
 400126c:	e13fff15 	stw	r4,-4(fp)
	if (sprite_direction(pacman) == IDLE) {
 4001270:	e13fff17 	ldw	r4,-4(fp)
 4001274:	400120c0 	call	400120c <sprite_direction>
 4001278:	1000021e 	bne	r2,zero,4001284 <get_pacman+0x28>
		return 0;
 400127c:	0005883a 	mov	r2,zero
 4001280:	00000506 	br	4001298 <get_pacman+0x3c>
	}
	return PACMAN_BASE + 2 * (sprite_direction(pacman) >> SPRITE_DIRECTION_SHIFT) - 1;
 4001284:	e13fff17 	ldw	r4,-4(fp)
 4001288:	400120c0 	call	400120c <sprite_direction>
 400128c:	1005d43a 	srai	r2,r2,16
 4001290:	1085883a 	add	r2,r2,r2
 4001294:	10bfffc4 	addi	r2,r2,-1
}
 4001298:	e037883a 	mov	sp,fp
 400129c:	dfc00117 	ldw	ra,4(sp)
 40012a0:	df000017 	ldw	fp,0(sp)
 40012a4:	dec00204 	addi	sp,sp,8
 40012a8:	f800283a 	ret

040012ac <get_ghost>:

int get_ghost(int ghost)
{
 40012ac:	defffc04 	addi	sp,sp,-16
 40012b0:	dfc00315 	stw	ra,12(sp)
 40012b4:	df000215 	stw	fp,8(sp)
 40012b8:	dc000115 	stw	r16,4(sp)
 40012bc:	df000204 	addi	fp,sp,8
 40012c0:	e13ffe15 	stw	r4,-8(fp)
	switch (sprite_property(ghost)) {
 40012c4:	e13ffe17 	ldw	r4,-8(fp)
 40012c8:	40012340 	call	4001234 <sprite_property>
 40012cc:	10dc0020 	cmpeqi	r3,r2,28672
 40012d0:	1800051e 	bne	r3,zero,40012e8 <get_ghost+0x3c>
 40012d4:	00f40014 	movui	r3,53248
 40012d8:	10c00726 	beq	r2,r3,40012f8 <get_ghost+0x4c>
 40012dc:	10840020 	cmpeqi	r2,r2,4096
 40012e0:	1000031e 	bne	r2,zero,40012f0 <get_ghost+0x44>
 40012e4:	00000906 	br	400130c <get_ghost+0x60>
	case BLUE:
		return BLUE_GHOST;
 40012e8:	00800a44 	movi	r2,41
 40012ec:	00001306 	br	400133c <get_ghost+0x90>
	case WHITE:
		return WHITE_GHOST;
 40012f0:	00800ac4 	movi	r2,43
 40012f4:	00001106 	br	400133c <get_ghost+0x90>
	case EYES_ONLY:
		return GHOST_EYES_BASE + (sprite_direction(ghost) >> SPRITE_DIRECTION_SHIFT) - 1;
 40012f8:	e13ffe17 	ldw	r4,-8(fp)
 40012fc:	400120c0 	call	400120c <sprite_direction>
 4001300:	1005d43a 	srai	r2,r2,16
 4001304:	10800b04 	addi	r2,r2,44
 4001308:	00000c06 	br	400133c <get_ghost+0x90>
	default:
		return GHOST_BASE
			+ 8 * ((sprite_property(ghost) >> SPRITE_PROPERTY_SHIFT) - GHOST_PROPERTY_BASE)
 400130c:	e13ffe17 	ldw	r4,-8(fp)
 4001310:	40012340 	call	4001234 <sprite_property>
 4001314:	1005d33a 	srai	r2,r2,12
 4001318:	10bfff44 	addi	r2,r2,-3
 400131c:	100490fa 	slli	r2,r2,3
 4001320:	14000244 	addi	r16,r2,9
			+ 2 * ((sprite_direction(ghost) >> SPRITE_DIRECTION_SHIFT) - 1);
 4001324:	e13ffe17 	ldw	r4,-8(fp)
 4001328:	400120c0 	call	400120c <sprite_direction>
 400132c:	1005d43a 	srai	r2,r2,16
 4001330:	10bfffc4 	addi	r2,r2,-1
 4001334:	1085883a 	add	r2,r2,r2
	case WHITE:
		return WHITE_GHOST;
	case EYES_ONLY:
		return GHOST_EYES_BASE + (sprite_direction(ghost) >> SPRITE_DIRECTION_SHIFT) - 1;
	default:
		return GHOST_BASE
 4001338:	8085883a 	add	r2,r16,r2
			+ 8 * ((sprite_property(ghost) >> SPRITE_PROPERTY_SHIFT) - GHOST_PROPERTY_BASE)
			+ 2 * ((sprite_direction(ghost) >> SPRITE_DIRECTION_SHIFT) - 1);
	}
}
 400133c:	e6ffff04 	addi	sp,fp,-4
 4001340:	dfc00217 	ldw	ra,8(sp)
 4001344:	df000117 	ldw	fp,4(sp)
 4001348:	dc000017 	ldw	r16,0(sp)
 400134c:	dec00304 	addi	sp,sp,12
 4001350:	f800283a 	ret

04001354 <get_food>:

int get_food(int food)
{
 4001354:	defffd04 	addi	sp,sp,-12
 4001358:	dfc00215 	stw	ra,8(sp)
 400135c:	df000115 	stw	fp,4(sp)
 4001360:	df000104 	addi	fp,sp,4
 4001364:	e13fff15 	stw	r4,-4(fp)
	switch (sprite_property(food)) {
 4001368:	e13fff17 	ldw	r4,-4(fp)
 400136c:	40012340 	call	4001234 <sprite_property>
 4001370:	00f80014 	movui	r3,57344
 4001374:	10c00326 	beq	r2,r3,4001384 <get_food+0x30>
 4001378:	00fc0014 	movui	r3,61440
 400137c:	10c00326 	beq	r2,r3,400138c <get_food+0x38>
 4001380:	00000406 	br	4001394 <get_food+0x40>
	case SMALL:
		return FOOD_BASE + 1;
 4001384:	00800c84 	movi	r2,50
 4001388:	00000306 	br	4001398 <get_food+0x44>
	case BIG:
		return FOOD_BASE;
 400138c:	00800c44 	movi	r2,49
 4001390:	00000106 	br	4001398 <get_food+0x44>
	default:
		return -1;
 4001394:	00bfffc4 	movi	r2,-1
	}
}
 4001398:	e037883a 	mov	sp,fp
 400139c:	dfc00117 	ldw	ra,4(sp)
 40013a0:	df000017 	ldw	fp,0(sp)
 40013a4:	dec00204 	addi	sp,sp,8
 40013a8:	f800283a 	ret

040013ac <get_sprite>:

int get_sprite(int sprite)
{
 40013ac:	defffc04 	addi	sp,sp,-16
 40013b0:	dfc00315 	stw	ra,12(sp)
 40013b4:	df000215 	stw	fp,8(sp)
 40013b8:	dc000115 	stw	r16,4(sp)
 40013bc:	df000204 	addi	fp,sp,8
 40013c0:	e13ffe15 	stw	r4,-8(fp)
	switch (sprite_type(sprite)) {
 40013c4:	e13ffe17 	ldw	r4,-8(fp)
 40013c8:	40011e40 	call	40011e4 <sprite_type>
 40013cc:	10c04020 	cmpeqi	r3,r2,256
 40013d0:	1800101e 	bne	r3,zero,4001414 <get_sprite+0x68>
 40013d4:	10c04048 	cmpgei	r3,r2,257
 40013d8:	1800021e 	bne	r3,zero,40013e4 <get_sprite+0x38>
 40013dc:	10000626 	beq	r2,zero,40013f8 <get_sprite+0x4c>
 40013e0:	00001f06 	br	4001460 <get_sprite+0xb4>
 40013e4:	10c08020 	cmpeqi	r3,r2,512
 40013e8:	1800111e 	bne	r3,zero,4001430 <get_sprite+0x84>
 40013ec:	1080c020 	cmpeqi	r2,r2,768
 40013f0:	1000161e 	bne	r2,zero,400144c <get_sprite+0xa0>
 40013f4:	00001a06 	br	4001460 <get_sprite+0xb4>
	case PACMAN:
		return (sprite & ~SPRITE_INDEX_MASK) | get_pacman(sprite);
 40013f8:	e0fffe17 	ldw	r3,-8(fp)
 40013fc:	00bfc004 	movi	r2,-256
 4001400:	18a0703a 	and	r16,r3,r2
 4001404:	e13ffe17 	ldw	r4,-8(fp)
 4001408:	400125c0 	call	400125c <get_pacman>
 400140c:	8084b03a 	or	r2,r16,r2
 4001410:	00001406 	br	4001464 <get_sprite+0xb8>
	case GHOST:
		return (sprite & ~SPRITE_INDEX_MASK) | get_ghost(sprite);
 4001414:	e0fffe17 	ldw	r3,-8(fp)
 4001418:	00bfc004 	movi	r2,-256
 400141c:	18a0703a 	and	r16,r3,r2
 4001420:	e13ffe17 	ldw	r4,-8(fp)
 4001424:	40012ac0 	call	40012ac <get_ghost>
 4001428:	8084b03a 	or	r2,r16,r2
 400142c:	00000d06 	br	4001464 <get_sprite+0xb8>
	case FOOD:
		return (sprite & ~SPRITE_INDEX_MASK) | get_food(sprite);
 4001430:	e0fffe17 	ldw	r3,-8(fp)
 4001434:	00bfc004 	movi	r2,-256
 4001438:	18a0703a 	and	r16,r3,r2
 400143c:	e13ffe17 	ldw	r4,-8(fp)
 4001440:	40013540 	call	4001354 <get_food>
 4001444:	8084b03a 	or	r2,r16,r2
 4001448:	00000606 	br	4001464 <get_sprite+0xb8>
	case WALL:
		return (sprite & ~SPRITE_INDEX_MASK) | WALL_BASE;
 400144c:	e0fffe17 	ldw	r3,-8(fp)
 4001450:	00bfc004 	movi	r2,-256
 4001454:	1884703a 	and	r2,r3,r2
 4001458:	10800cd4 	ori	r2,r2,51
 400145c:	00000106 	br	4001464 <get_sprite+0xb8>
	default:
		return -1;
 4001460:	00bfffc4 	movi	r2,-1
	}
}
 4001464:	e6ffff04 	addi	sp,fp,-4
 4001468:	dfc00217 	ldw	ra,8(sp)
 400146c:	df000117 	ldw	fp,4(sp)
 4001470:	dc000017 	ldw	r16,0(sp)
 4001474:	dec00304 	addi	sp,sp,12
 4001478:	f800283a 	ret

0400147c <map_get_sprite>:

int map_get_sprite(int *map, int x, int y)
{
 400147c:	defffb04 	addi	sp,sp,-20
 4001480:	dfc00415 	stw	ra,16(sp)
 4001484:	df000315 	stw	fp,12(sp)
 4001488:	df000304 	addi	fp,sp,12
 400148c:	e13ffd15 	stw	r4,-12(fp)
 4001490:	e17ffe15 	stw	r5,-8(fp)
 4001494:	e1bfff15 	stw	r6,-4(fp)
	return map[y * PACMAN_MAP_WIDTH + x];
 4001498:	01400a04 	movi	r5,40
 400149c:	e13fff17 	ldw	r4,-4(fp)
 40014a0:	40043840 	call	4004384 <__mulsi3>
 40014a4:	1007883a 	mov	r3,r2
 40014a8:	e0bffe17 	ldw	r2,-8(fp)
 40014ac:	1885883a 	add	r2,r3,r2
 40014b0:	1085883a 	add	r2,r2,r2
 40014b4:	1085883a 	add	r2,r2,r2
 40014b8:	1007883a 	mov	r3,r2
 40014bc:	e0bffd17 	ldw	r2,-12(fp)
 40014c0:	10c5883a 	add	r2,r2,r3
 40014c4:	10800017 	ldw	r2,0(r2)
}
 40014c8:	e037883a 	mov	sp,fp
 40014cc:	dfc00117 	ldw	ra,4(sp)
 40014d0:	df000017 	ldw	fp,0(sp)
 40014d4:	dec00204 	addi	sp,sp,8
 40014d8:	f800283a 	ret

040014dc <map_set_sprite>:

int map_set_sprite(int *map, int x, int y, int sprite)
{
 40014dc:	defffa04 	addi	sp,sp,-24
 40014e0:	dfc00515 	stw	ra,20(sp)
 40014e4:	df000415 	stw	fp,16(sp)
 40014e8:	df000404 	addi	fp,sp,16
 40014ec:	e13ffc15 	stw	r4,-16(fp)
 40014f0:	e17ffd15 	stw	r5,-12(fp)
 40014f4:	e1bffe15 	stw	r6,-8(fp)
 40014f8:	e1ffff15 	stw	r7,-4(fp)
	map[y * PACMAN_MAP_WIDTH + x] = sprite;
 40014fc:	01400a04 	movi	r5,40
 4001500:	e13ffe17 	ldw	r4,-8(fp)
 4001504:	40043840 	call	4004384 <__mulsi3>
 4001508:	1007883a 	mov	r3,r2
 400150c:	e0bffd17 	ldw	r2,-12(fp)
 4001510:	1885883a 	add	r2,r3,r2
 4001514:	1085883a 	add	r2,r2,r2
 4001518:	1085883a 	add	r2,r2,r2
 400151c:	1007883a 	mov	r3,r2
 4001520:	e0bffc17 	ldw	r2,-16(fp)
 4001524:	10c5883a 	add	r2,r2,r3
 4001528:	e0ffff17 	ldw	r3,-4(fp)
 400152c:	10c00015 	stw	r3,0(r2)
}
 4001530:	0001883a 	nop
 4001534:	e037883a 	mov	sp,fp
 4001538:	dfc00117 	ldw	ra,4(sp)
 400153c:	df000017 	ldw	fp,0(sp)
 4001540:	dec00204 	addi	sp,sp,8
 4001544:	f800283a 	ret

04001548 <next_pacman>:

int next_pacman(int pacman)
{
 4001548:	defffd04 	addi	sp,sp,-12
 400154c:	dfc00215 	stw	ra,8(sp)
 4001550:	df000115 	stw	fp,4(sp)
 4001554:	df000104 	addi	fp,sp,4
 4001558:	e13fff15 	stw	r4,-4(fp)
	if (sprite_index(pacman) == PACMAN_BASE) {
 400155c:	e13fff17 	ldw	r4,-4(fp)
 4001560:	40011bc0 	call	40011bc <sprite_index>
 4001564:	1000031e 	bne	r2,zero,4001574 <next_pacman+0x2c>
		return get_sprite(pacman);
 4001568:	e13fff17 	ldw	r4,-4(fp)
 400156c:	40013ac0 	call	40013ac <get_sprite>
 4001570:	00001106 	br	40015b8 <next_pacman+0x70>
	}
	if (pacman % 2 == 1) {
 4001574:	e0ffff17 	ldw	r3,-4(fp)
 4001578:	00a00034 	movhi	r2,32768
 400157c:	10800044 	addi	r2,r2,1
 4001580:	1884703a 	and	r2,r3,r2
 4001584:	1000040e 	bge	r2,zero,4001598 <next_pacman+0x50>
 4001588:	10bfffc4 	addi	r2,r2,-1
 400158c:	00ffff84 	movi	r3,-2
 4001590:	10c4b03a 	or	r2,r2,r3
 4001594:	10800044 	addi	r2,r2,1
 4001598:	10800058 	cmpnei	r2,r2,1
 400159c:	1000031e 	bne	r2,zero,40015ac <next_pacman+0x64>
		return pacman + 1;
 40015a0:	e0bfff17 	ldw	r2,-4(fp)
 40015a4:	10800044 	addi	r2,r2,1
 40015a8:	00000306 	br	40015b8 <next_pacman+0x70>
	} else {
		return (pacman & ~SPRITE_INDEX_MASK);
 40015ac:	e0ffff17 	ldw	r3,-4(fp)
 40015b0:	00bfc004 	movi	r2,-256
 40015b4:	1884703a 	and	r2,r3,r2
	}
}
 40015b8:	e037883a 	mov	sp,fp
 40015bc:	dfc00117 	ldw	ra,4(sp)
 40015c0:	df000017 	ldw	fp,0(sp)
 40015c4:	dec00204 	addi	sp,sp,8
 40015c8:	f800283a 	ret

040015cc <next_ghost>:

int next_ghost(int ghost)
{
 40015cc:	defffe04 	addi	sp,sp,-8
 40015d0:	df000115 	stw	fp,4(sp)
 40015d4:	df000104 	addi	fp,sp,4
 40015d8:	e13fff15 	stw	r4,-4(fp)
	if (ghost % 2 == 1) {
 40015dc:	e0ffff17 	ldw	r3,-4(fp)
 40015e0:	00a00034 	movhi	r2,32768
 40015e4:	10800044 	addi	r2,r2,1
 40015e8:	1884703a 	and	r2,r3,r2
 40015ec:	1000040e 	bge	r2,zero,4001600 <next_ghost+0x34>
 40015f0:	10bfffc4 	addi	r2,r2,-1
 40015f4:	00ffff84 	movi	r3,-2
 40015f8:	10c4b03a 	or	r2,r2,r3
 40015fc:	10800044 	addi	r2,r2,1
 4001600:	10800058 	cmpnei	r2,r2,1
 4001604:	1000031e 	bne	r2,zero,4001614 <next_ghost+0x48>
		return ghost + 1;
 4001608:	e0bfff17 	ldw	r2,-4(fp)
 400160c:	10800044 	addi	r2,r2,1
 4001610:	00000206 	br	400161c <next_ghost+0x50>
	} else {
		return ghost - 1;
 4001614:	e0bfff17 	ldw	r2,-4(fp)
 4001618:	10bfffc4 	addi	r2,r2,-1
	}
}
 400161c:	e037883a 	mov	sp,fp
 4001620:	df000017 	ldw	fp,0(sp)
 4001624:	dec00104 	addi	sp,sp,4
 4001628:	f800283a 	ret

0400162c <next_sprite>:

int next_sprite(int sprite)
{
 400162c:	defffd04 	addi	sp,sp,-12
 4001630:	dfc00215 	stw	ra,8(sp)
 4001634:	df000115 	stw	fp,4(sp)
 4001638:	df000104 	addi	fp,sp,4
 400163c:	e13fff15 	stw	r4,-4(fp)
	switch (sprite_type(sprite)) {
 4001640:	e13fff17 	ldw	r4,-4(fp)
 4001644:	40011e40 	call	40011e4 <sprite_type>
 4001648:	10c04020 	cmpeqi	r3,r2,256
 400164c:	18000c1e 	bne	r3,zero,4001680 <next_sprite+0x54>
 4001650:	10c04048 	cmpgei	r3,r2,257
 4001654:	1800021e 	bne	r3,zero,4001660 <next_sprite+0x34>
 4001658:	10000626 	beq	r2,zero,4001674 <next_sprite+0x48>
 400165c:	00000d06 	br	4001694 <next_sprite+0x68>
 4001660:	10c08020 	cmpeqi	r3,r2,512
 4001664:	1800091e 	bne	r3,zero,400168c <next_sprite+0x60>
 4001668:	1080c020 	cmpeqi	r2,r2,768
 400166c:	1000071e 	bne	r2,zero,400168c <next_sprite+0x60>
 4001670:	00000806 	br	4001694 <next_sprite+0x68>
	case PACMAN:
		return next_pacman(sprite);
 4001674:	e13fff17 	ldw	r4,-4(fp)
 4001678:	40015480 	call	4001548 <next_pacman>
 400167c:	00000606 	br	4001698 <next_sprite+0x6c>
	case GHOST:
		return next_ghost(sprite);
 4001680:	e13fff17 	ldw	r4,-4(fp)
 4001684:	40015cc0 	call	40015cc <next_ghost>
 4001688:	00000306 	br	4001698 <next_sprite+0x6c>
	case FOOD:
	case WALL:
		return sprite;
 400168c:	e0bfff17 	ldw	r2,-4(fp)
 4001690:	00000106 	br	4001698 <next_sprite+0x6c>
	default:
		return -1;
 4001694:	00bfffc4 	movi	r2,-1
	}
}
 4001698:	e037883a 	mov	sp,fp
 400169c:	dfc00117 	ldw	ra,4(sp)
 40016a0:	df000017 	ldw	fp,0(sp)
 40016a4:	dec00204 	addi	sp,sp,8
 40016a8:	f800283a 	ret

040016ac <animate_map>:

int animate_map(int *map)
{
 40016ac:	defffa04 	addi	sp,sp,-24
 40016b0:	dfc00515 	stw	ra,20(sp)
 40016b4:	df000415 	stw	fp,16(sp)
 40016b8:	dc000315 	stw	r16,12(sp)
 40016bc:	df000404 	addi	fp,sp,16
 40016c0:	e13ffe15 	stw	r4,-8(fp)
	for (int y = 0; y < PACMAN_MAP_HEIGHT; ++y) {
 40016c4:	e03ffc15 	stw	zero,-16(fp)
 40016c8:	00002506 	br	4001760 <animate_map+0xb4>
		for (int x = 0; x < PACMAN_MAP_WIDTH; ++x) {
 40016cc:	e03ffd15 	stw	zero,-12(fp)
 40016d0:	00001d06 	br	4001748 <animate_map+0x9c>
			map[y * PACMAN_MAP_WIDTH + x] = next_sprite(map[y * PACMAN_MAP_WIDTH + x]);
 40016d4:	01400a04 	movi	r5,40
 40016d8:	e13ffc17 	ldw	r4,-16(fp)
 40016dc:	40043840 	call	4004384 <__mulsi3>
 40016e0:	1007883a 	mov	r3,r2
 40016e4:	e0bffd17 	ldw	r2,-12(fp)
 40016e8:	1885883a 	add	r2,r3,r2
 40016ec:	1085883a 	add	r2,r2,r2
 40016f0:	1085883a 	add	r2,r2,r2
 40016f4:	1007883a 	mov	r3,r2
 40016f8:	e0bffe17 	ldw	r2,-8(fp)
 40016fc:	10e1883a 	add	r16,r2,r3
 4001700:	01400a04 	movi	r5,40
 4001704:	e13ffc17 	ldw	r4,-16(fp)
 4001708:	40043840 	call	4004384 <__mulsi3>
 400170c:	1007883a 	mov	r3,r2
 4001710:	e0bffd17 	ldw	r2,-12(fp)
 4001714:	1885883a 	add	r2,r3,r2
 4001718:	1085883a 	add	r2,r2,r2
 400171c:	1085883a 	add	r2,r2,r2
 4001720:	1007883a 	mov	r3,r2
 4001724:	e0bffe17 	ldw	r2,-8(fp)
 4001728:	10c5883a 	add	r2,r2,r3
 400172c:	10800017 	ldw	r2,0(r2)
 4001730:	1009883a 	mov	r4,r2
 4001734:	400162c0 	call	400162c <next_sprite>
 4001738:	80800015 	stw	r2,0(r16)
}

int animate_map(int *map)
{
	for (int y = 0; y < PACMAN_MAP_HEIGHT; ++y) {
		for (int x = 0; x < PACMAN_MAP_WIDTH; ++x) {
 400173c:	e0bffd17 	ldw	r2,-12(fp)
 4001740:	10800044 	addi	r2,r2,1
 4001744:	e0bffd15 	stw	r2,-12(fp)
 4001748:	e0bffd17 	ldw	r2,-12(fp)
 400174c:	10800a10 	cmplti	r2,r2,40
 4001750:	103fe01e 	bne	r2,zero,40016d4 <__alt_data_end+0xfc0016d4>
	}
}

int animate_map(int *map)
{
	for (int y = 0; y < PACMAN_MAP_HEIGHT; ++y) {
 4001754:	e0bffc17 	ldw	r2,-16(fp)
 4001758:	10800044 	addi	r2,r2,1
 400175c:	e0bffc15 	stw	r2,-16(fp)
 4001760:	e0bffc17 	ldw	r2,-16(fp)
 4001764:	10800790 	cmplti	r2,r2,30
 4001768:	103fd81e 	bne	r2,zero,40016cc <__alt_data_end+0xfc0016cc>
		for (int x = 0; x < PACMAN_MAP_WIDTH; ++x) {
			map[y * PACMAN_MAP_WIDTH + x] = next_sprite(map[y * PACMAN_MAP_WIDTH + x]);
		}
	}
}
 400176c:	0001883a 	nop
 4001770:	e6ffff04 	addi	sp,fp,-4
 4001774:	dfc00217 	ldw	ra,8(sp)
 4001778:	df000117 	ldw	fp,4(sp)
 400177c:	dc000017 	ldw	r16,0(sp)
 4001780:	dec00304 	addi	sp,sp,12
 4001784:	f800283a 	ret

04001788 <random_sprite>:

int random_sprite()
{
 4001788:	defffd04 	addi	sp,sp,-12
 400178c:	dfc00215 	stw	ra,8(sp)
 4001790:	df000115 	stw	fp,4(sp)
 4001794:	dc000015 	stw	r16,0(sp)
 4001798:	df000104 	addi	fp,sp,4
	return get_sprite(
			(rand() % SPRITE_TYPE_SIZE << SPRITE_TYPE_SHIFT)
 400179c:	400464c0 	call	400464c <rand>
 40017a0:	1007883a 	mov	r3,r2
 40017a4:	00a00034 	movhi	r2,32768
 40017a8:	108000c4 	addi	r2,r2,3
 40017ac:	1884703a 	and	r2,r3,r2
 40017b0:	1000040e 	bge	r2,zero,40017c4 <random_sprite+0x3c>
 40017b4:	10bfffc4 	addi	r2,r2,-1
 40017b8:	00ffff04 	movi	r3,-4
 40017bc:	10c4b03a 	or	r2,r2,r3
 40017c0:	10800044 	addi	r2,r2,1
 40017c4:	1020923a 	slli	r16,r2,8
		| (rand() % SPRITE_PROPERTY_SIZE << SPRITE_PROPERTY_SHIFT)
 40017c8:	400464c0 	call	400464c <rand>
 40017cc:	1007883a 	mov	r3,r2
 40017d0:	00a00034 	movhi	r2,32768
 40017d4:	108003c4 	addi	r2,r2,15
 40017d8:	1884703a 	and	r2,r3,r2
 40017dc:	1000040e 	bge	r2,zero,40017f0 <random_sprite+0x68>
 40017e0:	10bfffc4 	addi	r2,r2,-1
 40017e4:	00fffc04 	movi	r3,-16
 40017e8:	10c4b03a 	or	r2,r2,r3
 40017ec:	10800044 	addi	r2,r2,1
 40017f0:	1004933a 	slli	r2,r2,12
 40017f4:	80a0b03a 	or	r16,r16,r2
		| (rand() % SPRITE_DIRECTION_SIZE << SPRITE_DIRECTION_SHIFT));
 40017f8:	400464c0 	call	400464c <rand>
 40017fc:	01400144 	movi	r5,5
 4001800:	1009883a 	mov	r4,r2
 4001804:	40042540 	call	4004254 <__modsi3>
 4001808:	1004943a 	slli	r2,r2,16
	}
}

int random_sprite()
{
	return get_sprite(
 400180c:	8084b03a 	or	r2,r16,r2
 4001810:	1009883a 	mov	r4,r2
 4001814:	40013ac0 	call	40013ac <get_sprite>
			(rand() % SPRITE_TYPE_SIZE << SPRITE_TYPE_SHIFT)
		| (rand() % SPRITE_PROPERTY_SIZE << SPRITE_PROPERTY_SHIFT)
		| (rand() % SPRITE_DIRECTION_SIZE << SPRITE_DIRECTION_SHIFT));
}
 4001818:	e6ffff04 	addi	sp,fp,-4
 400181c:	dfc00217 	ldw	ra,8(sp)
 4001820:	df000117 	ldw	fp,4(sp)
 4001824:	dc000017 	ldw	r16,0(sp)
 4001828:	dec00304 	addi	sp,sp,12
 400182c:	f800283a 	ret

04001830 <connect_walls>:

void connect_walls(int *walls, int src, int dst)
{
 4001830:	defff904 	addi	sp,sp,-28
 4001834:	dfc00615 	stw	ra,24(sp)
 4001838:	df000515 	stw	fp,20(sp)
 400183c:	df000504 	addi	fp,sp,20
 4001840:	e13ffd15 	stw	r4,-12(fp)
 4001844:	e17ffe15 	stw	r5,-8(fp)
 4001848:	e1bfff15 	stw	r6,-4(fp)
	for (int y = 0; y < PACMAN_MAP_HEIGHT; ++y) {
 400184c:	e03ffb15 	stw	zero,-20(fp)
 4001850:	00002606 	br	40018ec <connect_walls+0xbc>
		for (int x = 0; x < PACMAN_MAP_WIDTH; ++x) {
 4001854:	e03ffc15 	stw	zero,-16(fp)
 4001858:	00001e06 	br	40018d4 <connect_walls+0xa4>
			if (walls[y * PACMAN_MAP_WIDTH + x] == src) {
 400185c:	01400a04 	movi	r5,40
 4001860:	e13ffb17 	ldw	r4,-20(fp)
 4001864:	40043840 	call	4004384 <__mulsi3>
 4001868:	1007883a 	mov	r3,r2
 400186c:	e0bffc17 	ldw	r2,-16(fp)
 4001870:	1885883a 	add	r2,r3,r2
 4001874:	1085883a 	add	r2,r2,r2
 4001878:	1085883a 	add	r2,r2,r2
 400187c:	1007883a 	mov	r3,r2
 4001880:	e0bffd17 	ldw	r2,-12(fp)
 4001884:	10c5883a 	add	r2,r2,r3
 4001888:	10c00017 	ldw	r3,0(r2)
 400188c:	e0bffe17 	ldw	r2,-8(fp)
 4001890:	18800d1e 	bne	r3,r2,40018c8 <connect_walls+0x98>
				walls[y * PACMAN_MAP_WIDTH + x] = dst;
 4001894:	01400a04 	movi	r5,40
 4001898:	e13ffb17 	ldw	r4,-20(fp)
 400189c:	40043840 	call	4004384 <__mulsi3>
 40018a0:	1007883a 	mov	r3,r2
 40018a4:	e0bffc17 	ldw	r2,-16(fp)
 40018a8:	1885883a 	add	r2,r3,r2
 40018ac:	1085883a 	add	r2,r2,r2
 40018b0:	1085883a 	add	r2,r2,r2
 40018b4:	1007883a 	mov	r3,r2
 40018b8:	e0bffd17 	ldw	r2,-12(fp)
 40018bc:	10c5883a 	add	r2,r2,r3
 40018c0:	e0ffff17 	ldw	r3,-4(fp)
 40018c4:	10c00015 	stw	r3,0(r2)
}

void connect_walls(int *walls, int src, int dst)
{
	for (int y = 0; y < PACMAN_MAP_HEIGHT; ++y) {
		for (int x = 0; x < PACMAN_MAP_WIDTH; ++x) {
 40018c8:	e0bffc17 	ldw	r2,-16(fp)
 40018cc:	10800044 	addi	r2,r2,1
 40018d0:	e0bffc15 	stw	r2,-16(fp)
 40018d4:	e0bffc17 	ldw	r2,-16(fp)
 40018d8:	10800a10 	cmplti	r2,r2,40
 40018dc:	103fdf1e 	bne	r2,zero,400185c <__alt_data_end+0xfc00185c>
		| (rand() % SPRITE_DIRECTION_SIZE << SPRITE_DIRECTION_SHIFT));
}

void connect_walls(int *walls, int src, int dst)
{
	for (int y = 0; y < PACMAN_MAP_HEIGHT; ++y) {
 40018e0:	e0bffb17 	ldw	r2,-20(fp)
 40018e4:	10800044 	addi	r2,r2,1
 40018e8:	e0bffb15 	stw	r2,-20(fp)
 40018ec:	e0bffb17 	ldw	r2,-20(fp)
 40018f0:	10800790 	cmplti	r2,r2,30
 40018f4:	103fd71e 	bne	r2,zero,4001854 <__alt_data_end+0xfc001854>
			if (walls[y * PACMAN_MAP_WIDTH + x] == src) {
				walls[y * PACMAN_MAP_WIDTH + x] = dst;
			}
		}
	}
}
 40018f8:	0001883a 	nop
 40018fc:	e037883a 	mov	sp,fp
 4001900:	dfc00117 	ldw	ra,4(sp)
 4001904:	df000017 	ldw	fp,0(sp)
 4001908:	dec00204 	addi	sp,sp,8
 400190c:	f800283a 	ret

04001910 <random_walls>:

void random_walls(int *map)
{
 4001910:	def68904 	addi	sp,sp,-9692
 4001914:	dfc97615 	stw	ra,9688(sp)
 4001918:	df097515 	stw	fp,9684(sp)
 400191c:	dc097415 	stw	r16,9680(sp)
 4001920:	df097504 	addi	fp,sp,9684
 4001924:	e13ffe15 	stw	r4,-8(fp)
	int walls[1200] = {0};
 4001928:	e0b69604 	addi	r2,fp,-9640
 400192c:	00c4b004 	movi	r3,4800
 4001930:	180d883a 	mov	r6,r3
 4001934:	000b883a 	mov	r5,zero
 4001938:	1009883a 	mov	r4,r2
 400193c:	40043ac0 	call	40043ac <memset>
	int index = 1;
 4001940:	00800044 	movi	r2,1
 4001944:	e0b68b15 	stw	r2,-9684(fp)
	for (int i = 0; i < 1024; ++i) {
 4001948:	e0368c15 	stw	zero,-9680(fp)
 400194c:	0000bf06 	br	4001c4c <random_walls+0x33c>
		int connected[1200] = {0};
 4001950:	e0bb4604 	addi	r2,fp,-4840
 4001954:	00c4b004 	movi	r3,4800
 4001958:	180d883a 	mov	r6,r3
 400195c:	000b883a 	mov	r5,zero
 4001960:	1009883a 	mov	r4,r2
 4001964:	40043ac0 	call	40043ac <memset>
		int x = rand() % (PACMAN_MAP_WIDTH - 2) + 2;
 4001968:	400464c0 	call	400464c <rand>
 400196c:	01400984 	movi	r5,38
 4001970:	1009883a 	mov	r4,r2
 4001974:	40042540 	call	4004254 <__modsi3>
 4001978:	10800084 	addi	r2,r2,2
 400197c:	e0b69415 	stw	r2,-9648(fp)
		int y = rand() % (PACMAN_MAP_HEIGHT - 2) + 2;
 4001980:	400464c0 	call	400464c <rand>
 4001984:	01400704 	movi	r5,28
 4001988:	1009883a 	mov	r4,r2
 400198c:	40042540 	call	4004254 <__modsi3>
 4001990:	10800084 	addi	r2,r2,2
 4001994:	e0b69515 	stw	r2,-9644(fp)
		if (walls[y * PACMAN_MAP_WIDTH + x] != 0) {
 4001998:	01400a04 	movi	r5,40
 400199c:	e1369517 	ldw	r4,-9644(fp)
 40019a0:	40043840 	call	4004384 <__mulsi3>
 40019a4:	1007883a 	mov	r3,r2
 40019a8:	e0b69417 	ldw	r2,-9648(fp)
 40019ac:	1885883a 	add	r2,r3,r2
 40019b0:	1085883a 	add	r2,r2,r2
 40019b4:	1085883a 	add	r2,r2,r2
 40019b8:	e0f68b04 	addi	r3,fp,-9684
 40019bc:	1885883a 	add	r2,r3,r2
 40019c0:	10800b04 	addi	r2,r2,44
 40019c4:	10800017 	ldw	r2,0(r2)
 40019c8:	10009a1e 	bne	r2,zero,4001c34 <random_walls+0x324>
			continue;
		}
		int is_closed = 0;
 40019cc:	e0368d15 	stw	zero,-9676(fp)
		int count = 0;
 40019d0:	e0368e15 	stw	zero,-9672(fp)
		int connected_indices[8] = {0};
 40019d4:	e03ff615 	stw	zero,-40(fp)
 40019d8:	e03ff715 	stw	zero,-36(fp)
 40019dc:	e03ff815 	stw	zero,-32(fp)
 40019e0:	e03ff915 	stw	zero,-28(fp)
 40019e4:	e03ffa15 	stw	zero,-24(fp)
 40019e8:	e03ffb15 	stw	zero,-20(fp)
 40019ec:	e03ffc15 	stw	zero,-16(fp)
 40019f0:	e03ffd15 	stw	zero,-12(fp)
		for (int j = y - 1; j < y + 2; ++j) {
 40019f4:	e0b69517 	ldw	r2,-9644(fp)
 40019f8:	10bfffc4 	addi	r2,r2,-1
 40019fc:	e0b68f15 	stw	r2,-9668(fp)
 4001a00:	00005b06 	br	4001b70 <random_walls+0x260>
			for (int i = x - 1; i < x + 2; ++i) {
 4001a04:	e0b69417 	ldw	r2,-9648(fp)
 4001a08:	10bfffc4 	addi	r2,r2,-1
 4001a0c:	e0b69015 	stw	r2,-9664(fp)
 4001a10:	00004e06 	br	4001b4c <random_walls+0x23c>
				if (walls[j * PACMAN_MAP_WIDTH + i] != 0) {
 4001a14:	01400a04 	movi	r5,40
 4001a18:	e1368f17 	ldw	r4,-9668(fp)
 4001a1c:	40043840 	call	4004384 <__mulsi3>
 4001a20:	1007883a 	mov	r3,r2
 4001a24:	e0b69017 	ldw	r2,-9664(fp)
 4001a28:	1885883a 	add	r2,r3,r2
 4001a2c:	1085883a 	add	r2,r2,r2
 4001a30:	1085883a 	add	r2,r2,r2
 4001a34:	e1368b04 	addi	r4,fp,-9684
 4001a38:	2085883a 	add	r2,r4,r2
 4001a3c:	10800b04 	addi	r2,r2,44
 4001a40:	10800017 	ldw	r2,0(r2)
 4001a44:	10003e26 	beq	r2,zero,4001b40 <random_walls+0x230>
					if (connected[walls[j * PACMAN_MAP_WIDTH + i]]) {
 4001a48:	01400a04 	movi	r5,40
 4001a4c:	e1368f17 	ldw	r4,-9668(fp)
 4001a50:	40043840 	call	4004384 <__mulsi3>
 4001a54:	1007883a 	mov	r3,r2
 4001a58:	e0b69017 	ldw	r2,-9664(fp)
 4001a5c:	1885883a 	add	r2,r3,r2
 4001a60:	1085883a 	add	r2,r2,r2
 4001a64:	1085883a 	add	r2,r2,r2
 4001a68:	e0f68b04 	addi	r3,fp,-9684
 4001a6c:	1885883a 	add	r2,r3,r2
 4001a70:	10800b04 	addi	r2,r2,44
 4001a74:	10800017 	ldw	r2,0(r2)
 4001a78:	1085883a 	add	r2,r2,r2
 4001a7c:	1085883a 	add	r2,r2,r2
 4001a80:	e1368b04 	addi	r4,fp,-9684
 4001a84:	2085883a 	add	r2,r4,r2
 4001a88:	1084bb04 	addi	r2,r2,4844
 4001a8c:	10800017 	ldw	r2,0(r2)
 4001a90:	10000326 	beq	r2,zero,4001aa0 <random_walls+0x190>
						is_closed = 1;
 4001a94:	00800044 	movi	r2,1
 4001a98:	e0b68d15 	stw	r2,-9676(fp)
						break;
 4001a9c:	00002f06 	br	4001b5c <random_walls+0x24c>
					}
					connected[walls[j * PACMAN_MAP_WIDTH + i]] = 1;
 4001aa0:	01400a04 	movi	r5,40
 4001aa4:	e1368f17 	ldw	r4,-9668(fp)
 4001aa8:	40043840 	call	4004384 <__mulsi3>
 4001aac:	1007883a 	mov	r3,r2
 4001ab0:	e0b69017 	ldw	r2,-9664(fp)
 4001ab4:	1885883a 	add	r2,r3,r2
 4001ab8:	1085883a 	add	r2,r2,r2
 4001abc:	1085883a 	add	r2,r2,r2
 4001ac0:	e0f68b04 	addi	r3,fp,-9684
 4001ac4:	1885883a 	add	r2,r3,r2
 4001ac8:	10800b04 	addi	r2,r2,44
 4001acc:	10800017 	ldw	r2,0(r2)
 4001ad0:	1085883a 	add	r2,r2,r2
 4001ad4:	1085883a 	add	r2,r2,r2
 4001ad8:	e1368b04 	addi	r4,fp,-9684
 4001adc:	2085883a 	add	r2,r4,r2
 4001ae0:	1084bb04 	addi	r2,r2,4844
 4001ae4:	00c00044 	movi	r3,1
 4001ae8:	10c00015 	stw	r3,0(r2)
					connected_indices[count++] = walls[j * PACMAN_MAP_WIDTH + i];
 4001aec:	e4368e17 	ldw	r16,-9672(fp)
 4001af0:	80800044 	addi	r2,r16,1
 4001af4:	e0b68e15 	stw	r2,-9672(fp)
 4001af8:	01400a04 	movi	r5,40
 4001afc:	e1368f17 	ldw	r4,-9668(fp)
 4001b00:	40043840 	call	4004384 <__mulsi3>
 4001b04:	1007883a 	mov	r3,r2
 4001b08:	e0b69017 	ldw	r2,-9664(fp)
 4001b0c:	1885883a 	add	r2,r3,r2
 4001b10:	1085883a 	add	r2,r2,r2
 4001b14:	1085883a 	add	r2,r2,r2
 4001b18:	e0f68b04 	addi	r3,fp,-9684
 4001b1c:	1885883a 	add	r2,r3,r2
 4001b20:	10800b04 	addi	r2,r2,44
 4001b24:	10c00017 	ldw	r3,0(r2)
 4001b28:	8405883a 	add	r2,r16,r16
 4001b2c:	1085883a 	add	r2,r2,r2
 4001b30:	e1368b04 	addi	r4,fp,-9684
 4001b34:	2085883a 	add	r2,r4,r2
 4001b38:	10896b04 	addi	r2,r2,9644
 4001b3c:	10c00015 	stw	r3,0(r2)
		}
		int is_closed = 0;
		int count = 0;
		int connected_indices[8] = {0};
		for (int j = y - 1; j < y + 2; ++j) {
			for (int i = x - 1; i < x + 2; ++i) {
 4001b40:	e0b69017 	ldw	r2,-9664(fp)
 4001b44:	10800044 	addi	r2,r2,1
 4001b48:	e0b69015 	stw	r2,-9664(fp)
 4001b4c:	e0b69417 	ldw	r2,-9648(fp)
 4001b50:	10800084 	addi	r2,r2,2
 4001b54:	e0f69017 	ldw	r3,-9664(fp)
 4001b58:	18bfae16 	blt	r3,r2,4001a14 <__alt_data_end+0xfc001a14>
					}
					connected[walls[j * PACMAN_MAP_WIDTH + i]] = 1;
					connected_indices[count++] = walls[j * PACMAN_MAP_WIDTH + i];
				}
			}
			if (is_closed) {
 4001b5c:	e0b68d17 	ldw	r2,-9676(fp)
 4001b60:	1000081e 	bne	r2,zero,4001b84 <random_walls+0x274>
			continue;
		}
		int is_closed = 0;
		int count = 0;
		int connected_indices[8] = {0};
		for (int j = y - 1; j < y + 2; ++j) {
 4001b64:	e0b68f17 	ldw	r2,-9668(fp)
 4001b68:	10800044 	addi	r2,r2,1
 4001b6c:	e0b68f15 	stw	r2,-9668(fp)
 4001b70:	e0b69517 	ldw	r2,-9644(fp)
 4001b74:	10800084 	addi	r2,r2,2
 4001b78:	e0f68f17 	ldw	r3,-9668(fp)
 4001b7c:	18bfa116 	blt	r3,r2,4001a04 <__alt_data_end+0xfc001a04>
 4001b80:	00000106 	br	4001b88 <random_walls+0x278>
					connected[walls[j * PACMAN_MAP_WIDTH + i]] = 1;
					connected_indices[count++] = walls[j * PACMAN_MAP_WIDTH + i];
				}
			}
			if (is_closed) {
				break;
 4001b84:	0001883a 	nop
			}
		}
		if (count == 0) {
 4001b88:	e0b68e17 	ldw	r2,-9672(fp)
 4001b8c:	1000101e 	bne	r2,zero,4001bd0 <random_walls+0x2c0>
			walls[y * PACMAN_MAP_WIDTH + x] = index++;
 4001b90:	01400a04 	movi	r5,40
 4001b94:	e1369517 	ldw	r4,-9644(fp)
 4001b98:	40043840 	call	4004384 <__mulsi3>
 4001b9c:	1007883a 	mov	r3,r2
 4001ba0:	e0b69417 	ldw	r2,-9648(fp)
 4001ba4:	1887883a 	add	r3,r3,r2
 4001ba8:	e0b68b17 	ldw	r2,-9684(fp)
 4001bac:	11000044 	addi	r4,r2,1
 4001bb0:	e1368b15 	stw	r4,-9684(fp)
 4001bb4:	18c7883a 	add	r3,r3,r3
 4001bb8:	18c7883a 	add	r3,r3,r3
 4001bbc:	e1368b04 	addi	r4,fp,-9684
 4001bc0:	20c7883a 	add	r3,r4,r3
 4001bc4:	18c00b04 	addi	r3,r3,44
 4001bc8:	18800015 	stw	r2,0(r3)
			continue;
 4001bcc:	00001c06 	br	4001c40 <random_walls+0x330>
		}
		if (is_closed) {
 4001bd0:	e0b68d17 	ldw	r2,-9676(fp)
 4001bd4:	1000191e 	bne	r2,zero,4001c3c <random_walls+0x32c>
			continue;
		}
		for (int i = 1; i < count; ++i) {
 4001bd8:	00800044 	movi	r2,1
 4001bdc:	e0b69115 	stw	r2,-9660(fp)
 4001be0:	00001006 	br	4001c24 <random_walls+0x314>
			connect_walls(walls, connected_indices[i], connected_indices[0]);
 4001be4:	e0b69117 	ldw	r2,-9660(fp)
 4001be8:	1085883a 	add	r2,r2,r2
 4001bec:	1085883a 	add	r2,r2,r2
 4001bf0:	e0f68b04 	addi	r3,fp,-9684
 4001bf4:	1885883a 	add	r2,r3,r2
 4001bf8:	10896b04 	addi	r2,r2,9644
 4001bfc:	10c00017 	ldw	r3,0(r2)
 4001c00:	e13ff617 	ldw	r4,-40(fp)
 4001c04:	e0b69604 	addi	r2,fp,-9640
 4001c08:	200d883a 	mov	r6,r4
 4001c0c:	180b883a 	mov	r5,r3
 4001c10:	1009883a 	mov	r4,r2
 4001c14:	40018300 	call	4001830 <connect_walls>
			continue;
		}
		if (is_closed) {
			continue;
		}
		for (int i = 1; i < count; ++i) {
 4001c18:	e0b69117 	ldw	r2,-9660(fp)
 4001c1c:	10800044 	addi	r2,r2,1
 4001c20:	e0b69115 	stw	r2,-9660(fp)
 4001c24:	e0f69117 	ldw	r3,-9660(fp)
 4001c28:	e0b68e17 	ldw	r2,-9672(fp)
 4001c2c:	18bfed16 	blt	r3,r2,4001be4 <__alt_data_end+0xfc001be4>
 4001c30:	00000306 	br	4001c40 <random_walls+0x330>
	for (int i = 0; i < 1024; ++i) {
		int connected[1200] = {0};
		int x = rand() % (PACMAN_MAP_WIDTH - 2) + 2;
		int y = rand() % (PACMAN_MAP_HEIGHT - 2) + 2;
		if (walls[y * PACMAN_MAP_WIDTH + x] != 0) {
			continue;
 4001c34:	0001883a 	nop
 4001c38:	00000106 	br	4001c40 <random_walls+0x330>
		if (count == 0) {
			walls[y * PACMAN_MAP_WIDTH + x] = index++;
			continue;
		}
		if (is_closed) {
			continue;
 4001c3c:	0001883a 	nop

void random_walls(int *map)
{
	int walls[1200] = {0};
	int index = 1;
	for (int i = 0; i < 1024; ++i) {
 4001c40:	e0b68c17 	ldw	r2,-9680(fp)
 4001c44:	10800044 	addi	r2,r2,1
 4001c48:	e0b68c15 	stw	r2,-9680(fp)
 4001c4c:	e0b68c17 	ldw	r2,-9680(fp)
 4001c50:	10810010 	cmplti	r2,r2,1024
 4001c54:	103f3e1e 	bne	r2,zero,4001950 <__alt_data_end+0xfc001950>
		for (int i = 1; i < count; ++i) {
			connect_walls(walls, connected_indices[i], connected_indices[0]);
		}
	}

	for (int y = 0; y < PACMAN_MAP_HEIGHT; ++y) {
 4001c58:	e0369215 	stw	zero,-9656(fp)
 4001c5c:	00001f06 	br	4001cdc <random_walls+0x3cc>
		for (int x = 0; x < PACMAN_MAP_WIDTH; ++x) {
 4001c60:	e0369315 	stw	zero,-9652(fp)
 4001c64:	00001706 	br	4001cc4 <random_walls+0x3b4>
			if (walls[y * PACMAN_MAP_WIDTH + x])
 4001c68:	01400a04 	movi	r5,40
 4001c6c:	e1369217 	ldw	r4,-9656(fp)
 4001c70:	40043840 	call	4004384 <__mulsi3>
 4001c74:	1007883a 	mov	r3,r2
 4001c78:	e0b69317 	ldw	r2,-9652(fp)
 4001c7c:	1885883a 	add	r2,r3,r2
 4001c80:	1085883a 	add	r2,r2,r2
 4001c84:	1085883a 	add	r2,r2,r2
 4001c88:	e1368b04 	addi	r4,fp,-9684
 4001c8c:	2085883a 	add	r2,r4,r2
 4001c90:	10800b04 	addi	r2,r2,44
 4001c94:	10800017 	ldw	r2,0(r2)
 4001c98:	10000726 	beq	r2,zero,4001cb8 <random_walls+0x3a8>
				map_set_sprite(map, x, y, get_sprite(WALL));
 4001c9c:	0100c004 	movi	r4,768
 4001ca0:	40013ac0 	call	40013ac <get_sprite>
 4001ca4:	100f883a 	mov	r7,r2
 4001ca8:	e1b69217 	ldw	r6,-9656(fp)
 4001cac:	e1769317 	ldw	r5,-9652(fp)
 4001cb0:	e13ffe17 	ldw	r4,-8(fp)
 4001cb4:	40014dc0 	call	40014dc <map_set_sprite>
			connect_walls(walls, connected_indices[i], connected_indices[0]);
		}
	}

	for (int y = 0; y < PACMAN_MAP_HEIGHT; ++y) {
		for (int x = 0; x < PACMAN_MAP_WIDTH; ++x) {
 4001cb8:	e0b69317 	ldw	r2,-9652(fp)
 4001cbc:	10800044 	addi	r2,r2,1
 4001cc0:	e0b69315 	stw	r2,-9652(fp)
 4001cc4:	e0b69317 	ldw	r2,-9652(fp)
 4001cc8:	10800a10 	cmplti	r2,r2,40
 4001ccc:	103fe61e 	bne	r2,zero,4001c68 <__alt_data_end+0xfc001c68>
		for (int i = 1; i < count; ++i) {
			connect_walls(walls, connected_indices[i], connected_indices[0]);
		}
	}

	for (int y = 0; y < PACMAN_MAP_HEIGHT; ++y) {
 4001cd0:	e0b69217 	ldw	r2,-9656(fp)
 4001cd4:	10800044 	addi	r2,r2,1
 4001cd8:	e0b69215 	stw	r2,-9656(fp)
 4001cdc:	e0b69217 	ldw	r2,-9656(fp)
 4001ce0:	10800790 	cmplti	r2,r2,30
 4001ce4:	103fde1e 	bne	r2,zero,4001c60 <__alt_data_end+0xfc001c60>
		for (int x = 0; x < PACMAN_MAP_WIDTH; ++x) {
			if (walls[y * PACMAN_MAP_WIDTH + x])
				map_set_sprite(map, x, y, get_sprite(WALL));
		}
	}
}
 4001ce8:	0001883a 	nop
 4001cec:	e6ffff04 	addi	sp,fp,-4
 4001cf0:	dfc00217 	ldw	ra,8(sp)
 4001cf4:	df000117 	ldw	fp,4(sp)
 4001cf8:	dc000017 	ldw	r16,0(sp)
 4001cfc:	dec00304 	addi	sp,sp,12
 4001d00:	f800283a 	ret

04001d04 <random_map>:

void random_map(int *map)
{
 4001d04:	defffa04 	addi	sp,sp,-24
 4001d08:	dfc00515 	stw	ra,20(sp)
 4001d0c:	df000415 	stw	fp,16(sp)
 4001d10:	dc000315 	stw	r16,12(sp)
 4001d14:	df000404 	addi	fp,sp,16
 4001d18:	e13ffe15 	stw	r4,-8(fp)
	for (int y = 0; y < PACMAN_MAP_HEIGHT; ++y) {
 4001d1c:	e03ffc15 	stw	zero,-16(fp)
 4001d20:	00001a06 	br	4001d8c <random_map+0x88>
		for (int x = 0; x < PACMAN_MAP_WIDTH; ++x) {
 4001d24:	e03ffd15 	stw	zero,-12(fp)
 4001d28:	00001206 	br	4001d74 <random_map+0x70>
			map[y * PACMAN_MAP_WIDTH + x] = get_sprite(random_sprite());
 4001d2c:	01400a04 	movi	r5,40
 4001d30:	e13ffc17 	ldw	r4,-16(fp)
 4001d34:	40043840 	call	4004384 <__mulsi3>
 4001d38:	1007883a 	mov	r3,r2
 4001d3c:	e0bffd17 	ldw	r2,-12(fp)
 4001d40:	1885883a 	add	r2,r3,r2
 4001d44:	1085883a 	add	r2,r2,r2
 4001d48:	1085883a 	add	r2,r2,r2
 4001d4c:	1007883a 	mov	r3,r2
 4001d50:	e0bffe17 	ldw	r2,-8(fp)
 4001d54:	10e1883a 	add	r16,r2,r3
 4001d58:	40017880 	call	4001788 <random_sprite>
 4001d5c:	1009883a 	mov	r4,r2
 4001d60:	40013ac0 	call	40013ac <get_sprite>
 4001d64:	80800015 	stw	r2,0(r16)
}

void random_map(int *map)
{
	for (int y = 0; y < PACMAN_MAP_HEIGHT; ++y) {
		for (int x = 0; x < PACMAN_MAP_WIDTH; ++x) {
 4001d68:	e0bffd17 	ldw	r2,-12(fp)
 4001d6c:	10800044 	addi	r2,r2,1
 4001d70:	e0bffd15 	stw	r2,-12(fp)
 4001d74:	e0bffd17 	ldw	r2,-12(fp)
 4001d78:	10800a10 	cmplti	r2,r2,40
 4001d7c:	103feb1e 	bne	r2,zero,4001d2c <__alt_data_end+0xfc001d2c>
	}
}

void random_map(int *map)
{
	for (int y = 0; y < PACMAN_MAP_HEIGHT; ++y) {
 4001d80:	e0bffc17 	ldw	r2,-16(fp)
 4001d84:	10800044 	addi	r2,r2,1
 4001d88:	e0bffc15 	stw	r2,-16(fp)
 4001d8c:	e0bffc17 	ldw	r2,-16(fp)
 4001d90:	10800790 	cmplti	r2,r2,30
 4001d94:	103fe31e 	bne	r2,zero,4001d24 <__alt_data_end+0xfc001d24>
		for (int x = 0; x < PACMAN_MAP_WIDTH; ++x) {
			map[y * PACMAN_MAP_WIDTH + x] = get_sprite(random_sprite());
		}
	}
}
 4001d98:	0001883a 	nop
 4001d9c:	e6ffff04 	addi	sp,fp,-4
 4001da0:	dfc00217 	ldw	ra,8(sp)
 4001da4:	df000117 	ldw	fp,4(sp)
 4001da8:	dc000017 	ldw	r16,0(sp)
 4001dac:	dec00304 	addi	sp,sp,12
 4001db0:	f800283a 	ret

04001db4 <test_map>:

void test_map(int *map)
{
 4001db4:	defff304 	addi	sp,sp,-52
 4001db8:	dfc00c15 	stw	ra,48(sp)
 4001dbc:	df000b15 	stw	fp,44(sp)
 4001dc0:	dc000a15 	stw	r16,40(sp)
 4001dc4:	df000b04 	addi	fp,sp,44
 4001dc8:	e13ffe15 	stw	r4,-8(fp)
	for (int y = 0; y < PACMAN_MAP_HEIGHT; ++y) {
 4001dcc:	e03ff515 	stw	zero,-44(fp)
 4001dd0:	00001906 	br	4001e38 <test_map+0x84>
		for (int x = 0; x < PACMAN_MAP_WIDTH; ++x) {
 4001dd4:	e03ff615 	stw	zero,-40(fp)
 4001dd8:	00001106 	br	4001e20 <test_map+0x6c>
			map[y * PACMAN_MAP_WIDTH + x] = get_sprite(SMALL | FOOD);
 4001ddc:	01400a04 	movi	r5,40
 4001de0:	e13ff517 	ldw	r4,-44(fp)
 4001de4:	40043840 	call	4004384 <__mulsi3>
 4001de8:	1007883a 	mov	r3,r2
 4001dec:	e0bff617 	ldw	r2,-40(fp)
 4001df0:	1885883a 	add	r2,r3,r2
 4001df4:	1085883a 	add	r2,r2,r2
 4001df8:	1085883a 	add	r2,r2,r2
 4001dfc:	1007883a 	mov	r3,r2
 4001e00:	e0bffe17 	ldw	r2,-8(fp)
 4001e04:	10e1883a 	add	r16,r2,r3
 4001e08:	01388014 	movui	r4,57856
 4001e0c:	40013ac0 	call	40013ac <get_sprite>
 4001e10:	80800015 	stw	r2,0(r16)
}

void test_map(int *map)
{
	for (int y = 0; y < PACMAN_MAP_HEIGHT; ++y) {
		for (int x = 0; x < PACMAN_MAP_WIDTH; ++x) {
 4001e14:	e0bff617 	ldw	r2,-40(fp)
 4001e18:	10800044 	addi	r2,r2,1
 4001e1c:	e0bff615 	stw	r2,-40(fp)
 4001e20:	e0bff617 	ldw	r2,-40(fp)
 4001e24:	10800a10 	cmplti	r2,r2,40
 4001e28:	103fec1e 	bne	r2,zero,4001ddc <__alt_data_end+0xfc001ddc>
	}
}

void test_map(int *map)
{
	for (int y = 0; y < PACMAN_MAP_HEIGHT; ++y) {
 4001e2c:	e0bff517 	ldw	r2,-44(fp)
 4001e30:	10800044 	addi	r2,r2,1
 4001e34:	e0bff515 	stw	r2,-44(fp)
 4001e38:	e0bff517 	ldw	r2,-44(fp)
 4001e3c:	10800790 	cmplti	r2,r2,30
 4001e40:	103fe41e 	bne	r2,zero,4001dd4 <__alt_data_end+0xfc001dd4>
		for (int x = 0; x < PACMAN_MAP_WIDTH; ++x) {
			map[y * PACMAN_MAP_WIDTH + x] = get_sprite(SMALL | FOOD);
		}
	}
	for (int x = 0; x < PACMAN_MAP_WIDTH; ++x) {
 4001e44:	e03ff715 	stw	zero,-36(fp)
 4001e48:	00001606 	br	4001ea4 <test_map+0xf0>
		map[x] = get_sprite(WALL);
 4001e4c:	e0bff717 	ldw	r2,-36(fp)
 4001e50:	1085883a 	add	r2,r2,r2
 4001e54:	1085883a 	add	r2,r2,r2
 4001e58:	1007883a 	mov	r3,r2
 4001e5c:	e0bffe17 	ldw	r2,-8(fp)
 4001e60:	10e1883a 	add	r16,r2,r3
 4001e64:	0100c004 	movi	r4,768
 4001e68:	40013ac0 	call	40013ac <get_sprite>
 4001e6c:	80800015 	stw	r2,0(r16)
		map[(PACMAN_MAP_HEIGHT - 1) * PACMAN_MAP_WIDTH + x] = get_sprite(WALL);
 4001e70:	e0bff717 	ldw	r2,-36(fp)
 4001e74:	10812204 	addi	r2,r2,1160
 4001e78:	1085883a 	add	r2,r2,r2
 4001e7c:	1085883a 	add	r2,r2,r2
 4001e80:	1007883a 	mov	r3,r2
 4001e84:	e0bffe17 	ldw	r2,-8(fp)
 4001e88:	10e1883a 	add	r16,r2,r3
 4001e8c:	0100c004 	movi	r4,768
 4001e90:	40013ac0 	call	40013ac <get_sprite>
 4001e94:	80800015 	stw	r2,0(r16)
	for (int y = 0; y < PACMAN_MAP_HEIGHT; ++y) {
		for (int x = 0; x < PACMAN_MAP_WIDTH; ++x) {
			map[y * PACMAN_MAP_WIDTH + x] = get_sprite(SMALL | FOOD);
		}
	}
	for (int x = 0; x < PACMAN_MAP_WIDTH; ++x) {
 4001e98:	e0bff717 	ldw	r2,-36(fp)
 4001e9c:	10800044 	addi	r2,r2,1
 4001ea0:	e0bff715 	stw	r2,-36(fp)
 4001ea4:	e0bff717 	ldw	r2,-36(fp)
 4001ea8:	10800a10 	cmplti	r2,r2,40
 4001eac:	103fe71e 	bne	r2,zero,4001e4c <__alt_data_end+0xfc001e4c>
		map[x] = get_sprite(WALL);
		map[(PACMAN_MAP_HEIGHT - 1) * PACMAN_MAP_WIDTH + x] = get_sprite(WALL);
	}
	for (int y = 0; y < PACMAN_MAP_HEIGHT; ++y) {
 4001eb0:	e03ff815 	stw	zero,-32(fp)
 4001eb4:	00001506 	br	4001f0c <test_map+0x158>
		map[y * PACMAN_MAP_WIDTH] = get_sprite(WALL);
 4001eb8:	01402804 	movi	r5,160
 4001ebc:	e13ff817 	ldw	r4,-32(fp)
 4001ec0:	40043840 	call	4004384 <__mulsi3>
 4001ec4:	1007883a 	mov	r3,r2
 4001ec8:	e0bffe17 	ldw	r2,-8(fp)
 4001ecc:	10e1883a 	add	r16,r2,r3
 4001ed0:	0100c004 	movi	r4,768
 4001ed4:	40013ac0 	call	40013ac <get_sprite>
 4001ed8:	80800015 	stw	r2,0(r16)
		map[y * PACMAN_MAP_WIDTH + PACMAN_MAP_WIDTH - 1] = get_sprite(WALL);
 4001edc:	01402804 	movi	r5,160
 4001ee0:	e13ff817 	ldw	r4,-32(fp)
 4001ee4:	40043840 	call	4004384 <__mulsi3>
 4001ee8:	10802704 	addi	r2,r2,156
 4001eec:	e0fffe17 	ldw	r3,-8(fp)
 4001ef0:	18a1883a 	add	r16,r3,r2
 4001ef4:	0100c004 	movi	r4,768
 4001ef8:	40013ac0 	call	40013ac <get_sprite>
 4001efc:	80800015 	stw	r2,0(r16)
	}
	for (int x = 0; x < PACMAN_MAP_WIDTH; ++x) {
		map[x] = get_sprite(WALL);
		map[(PACMAN_MAP_HEIGHT - 1) * PACMAN_MAP_WIDTH + x] = get_sprite(WALL);
	}
	for (int y = 0; y < PACMAN_MAP_HEIGHT; ++y) {
 4001f00:	e0bff817 	ldw	r2,-32(fp)
 4001f04:	10800044 	addi	r2,r2,1
 4001f08:	e0bff815 	stw	r2,-32(fp)
 4001f0c:	e0bff817 	ldw	r2,-32(fp)
 4001f10:	10800790 	cmplti	r2,r2,30
 4001f14:	103fe81e 	bne	r2,zero,4001eb8 <__alt_data_end+0xfc001eb8>
		map[y * PACMAN_MAP_WIDTH] = get_sprite(WALL);
		map[y * PACMAN_MAP_WIDTH + PACMAN_MAP_WIDTH - 1] = get_sprite(WALL);
	}
	for (int x = 17; x <= 21; ++x)
 4001f18:	00800444 	movi	r2,17
 4001f1c:	e0bff915 	stw	r2,-28(fp)
 4001f20:	00000d06 	br	4001f58 <test_map+0x1a4>
		map[13 * PACMAN_MAP_WIDTH + x] = get_sprite(WALL);
 4001f24:	e0bff917 	ldw	r2,-28(fp)
 4001f28:	10808204 	addi	r2,r2,520
 4001f2c:	1085883a 	add	r2,r2,r2
 4001f30:	1085883a 	add	r2,r2,r2
 4001f34:	1007883a 	mov	r3,r2
 4001f38:	e0bffe17 	ldw	r2,-8(fp)
 4001f3c:	10e1883a 	add	r16,r2,r3
 4001f40:	0100c004 	movi	r4,768
 4001f44:	40013ac0 	call	40013ac <get_sprite>
 4001f48:	80800015 	stw	r2,0(r16)
	}
	for (int y = 0; y < PACMAN_MAP_HEIGHT; ++y) {
		map[y * PACMAN_MAP_WIDTH] = get_sprite(WALL);
		map[y * PACMAN_MAP_WIDTH + PACMAN_MAP_WIDTH - 1] = get_sprite(WALL);
	}
	for (int x = 17; x <= 21; ++x)
 4001f4c:	e0bff917 	ldw	r2,-28(fp)
 4001f50:	10800044 	addi	r2,r2,1
 4001f54:	e0bff915 	stw	r2,-28(fp)
 4001f58:	e0bff917 	ldw	r2,-28(fp)
 4001f5c:	10800590 	cmplti	r2,r2,22
 4001f60:	103ff01e 	bne	r2,zero,4001f24 <__alt_data_end+0xfc001f24>
		map[13 * PACMAN_MAP_WIDTH + x] = get_sprite(WALL);
	for (int x = 17; x <= 21; ++x)
 4001f64:	00800444 	movi	r2,17
 4001f68:	e0bffa15 	stw	r2,-24(fp)
 4001f6c:	00000d06 	br	4001fa4 <test_map+0x1f0>
		map[10 * PACMAN_MAP_WIDTH + x] = get_sprite(WALL);
 4001f70:	e0bffa17 	ldw	r2,-24(fp)
 4001f74:	10806404 	addi	r2,r2,400
 4001f78:	1085883a 	add	r2,r2,r2
 4001f7c:	1085883a 	add	r2,r2,r2
 4001f80:	1007883a 	mov	r3,r2
 4001f84:	e0bffe17 	ldw	r2,-8(fp)
 4001f88:	10e1883a 	add	r16,r2,r3
 4001f8c:	0100c004 	movi	r4,768
 4001f90:	40013ac0 	call	40013ac <get_sprite>
 4001f94:	80800015 	stw	r2,0(r16)
		map[y * PACMAN_MAP_WIDTH] = get_sprite(WALL);
		map[y * PACMAN_MAP_WIDTH + PACMAN_MAP_WIDTH - 1] = get_sprite(WALL);
	}
	for (int x = 17; x <= 21; ++x)
		map[13 * PACMAN_MAP_WIDTH + x] = get_sprite(WALL);
	for (int x = 17; x <= 21; ++x)
 4001f98:	e0bffa17 	ldw	r2,-24(fp)
 4001f9c:	10800044 	addi	r2,r2,1
 4001fa0:	e0bffa15 	stw	r2,-24(fp)
 4001fa4:	e0bffa17 	ldw	r2,-24(fp)
 4001fa8:	10800590 	cmplti	r2,r2,22
 4001fac:	103ff01e 	bne	r2,zero,4001f70 <__alt_data_end+0xfc001f70>
		map[10 * PACMAN_MAP_WIDTH + x] = get_sprite(WALL);
	for (int y = 10; y <= 12; ++y)
 4001fb0:	00800284 	movi	r2,10
 4001fb4:	e0bffb15 	stw	r2,-20(fp)
 4001fb8:	00000c06 	br	4001fec <test_map+0x238>
		map[y * PACMAN_MAP_WIDTH + 17] = get_sprite(WALL);
 4001fbc:	01402804 	movi	r5,160
 4001fc0:	e13ffb17 	ldw	r4,-20(fp)
 4001fc4:	40043840 	call	4004384 <__mulsi3>
 4001fc8:	10801104 	addi	r2,r2,68
 4001fcc:	e0fffe17 	ldw	r3,-8(fp)
 4001fd0:	18a1883a 	add	r16,r3,r2
 4001fd4:	0100c004 	movi	r4,768
 4001fd8:	40013ac0 	call	40013ac <get_sprite>
 4001fdc:	80800015 	stw	r2,0(r16)
	}
	for (int x = 17; x <= 21; ++x)
		map[13 * PACMAN_MAP_WIDTH + x] = get_sprite(WALL);
	for (int x = 17; x <= 21; ++x)
		map[10 * PACMAN_MAP_WIDTH + x] = get_sprite(WALL);
	for (int y = 10; y <= 12; ++y)
 4001fe0:	e0bffb17 	ldw	r2,-20(fp)
 4001fe4:	10800044 	addi	r2,r2,1
 4001fe8:	e0bffb15 	stw	r2,-20(fp)
 4001fec:	e0bffb17 	ldw	r2,-20(fp)
 4001ff0:	10800350 	cmplti	r2,r2,13
 4001ff4:	103ff11e 	bne	r2,zero,4001fbc <__alt_data_end+0xfc001fbc>
		map[y * PACMAN_MAP_WIDTH + 17] = get_sprite(WALL);
	for (int y = 10; y <= 12; ++y)
 4001ff8:	00800284 	movi	r2,10
 4001ffc:	e0bffc15 	stw	r2,-16(fp)
 4002000:	00000c06 	br	4002034 <test_map+0x280>
		map[y * PACMAN_MAP_WIDTH + 21] = get_sprite(WALL);
 4002004:	01402804 	movi	r5,160
 4002008:	e13ffc17 	ldw	r4,-16(fp)
 400200c:	40043840 	call	4004384 <__mulsi3>
 4002010:	10801504 	addi	r2,r2,84
 4002014:	e0fffe17 	ldw	r3,-8(fp)
 4002018:	18a1883a 	add	r16,r3,r2
 400201c:	0100c004 	movi	r4,768
 4002020:	40013ac0 	call	40013ac <get_sprite>
 4002024:	80800015 	stw	r2,0(r16)
		map[13 * PACMAN_MAP_WIDTH + x] = get_sprite(WALL);
	for (int x = 17; x <= 21; ++x)
		map[10 * PACMAN_MAP_WIDTH + x] = get_sprite(WALL);
	for (int y = 10; y <= 12; ++y)
		map[y * PACMAN_MAP_WIDTH + 17] = get_sprite(WALL);
	for (int y = 10; y <= 12; ++y)
 4002028:	e0bffc17 	ldw	r2,-16(fp)
 400202c:	10800044 	addi	r2,r2,1
 4002030:	e0bffc15 	stw	r2,-16(fp)
 4002034:	e0bffc17 	ldw	r2,-16(fp)
 4002038:	10800350 	cmplti	r2,r2,13
 400203c:	103ff11e 	bne	r2,zero,4002004 <__alt_data_end+0xfc002004>
		map[y * PACMAN_MAP_WIDTH + 21] = get_sprite(WALL);
	for (int x = 18; x <= 20; ++x)
 4002040:	00800484 	movi	r2,18
 4002044:	e0bffd15 	stw	r2,-12(fp)
 4002048:	00000d06 	br	4002080 <test_map+0x2cc>
		map[11 * PACMAN_MAP_WIDTH + x] = get_sprite(BACKGROUND);
 400204c:	e0bffd17 	ldw	r2,-12(fp)
 4002050:	10806e04 	addi	r2,r2,440
 4002054:	1085883a 	add	r2,r2,r2
 4002058:	1085883a 	add	r2,r2,r2
 400205c:	1007883a 	mov	r3,r2
 4002060:	e0bffe17 	ldw	r2,-8(fp)
 4002064:	10e1883a 	add	r16,r2,r3
 4002068:	013fffc4 	movi	r4,-1
 400206c:	40013ac0 	call	40013ac <get_sprite>
 4002070:	80800015 	stw	r2,0(r16)
		map[10 * PACMAN_MAP_WIDTH + x] = get_sprite(WALL);
	for (int y = 10; y <= 12; ++y)
		map[y * PACMAN_MAP_WIDTH + 17] = get_sprite(WALL);
	for (int y = 10; y <= 12; ++y)
		map[y * PACMAN_MAP_WIDTH + 21] = get_sprite(WALL);
	for (int x = 18; x <= 20; ++x)
 4002074:	e0bffd17 	ldw	r2,-12(fp)
 4002078:	10800044 	addi	r2,r2,1
 400207c:	e0bffd15 	stw	r2,-12(fp)
 4002080:	e0bffd17 	ldw	r2,-12(fp)
 4002084:	10800550 	cmplti	r2,r2,21
 4002088:	103ff01e 	bne	r2,zero,400204c <__alt_data_end+0xfc00204c>
		map[11 * PACMAN_MAP_WIDTH + x] = get_sprite(BACKGROUND);
}
 400208c:	0001883a 	nop
 4002090:	e6ffff04 	addi	sp,fp,-4
 4002094:	dfc00217 	ldw	ra,8(sp)
 4002098:	df000117 	ldw	fp,4(sp)
 400209c:	dc000017 	ldw	r16,0(sp)
 40020a0:	dec00304 	addi	sp,sp,12
 40020a4:	f800283a 	ret

040020a8 <spu_set_sprite>:
 */

#include "spu.h"

void spu_set_sprite(int x, int y, int index)
{
 40020a8:	defffb04 	addi	sp,sp,-20
 40020ac:	dfc00415 	stw	ra,16(sp)
 40020b0:	df000315 	stw	fp,12(sp)
 40020b4:	df000304 	addi	fp,sp,12
 40020b8:	e13ffd15 	stw	r4,-12(fp)
 40020bc:	e17ffe15 	stw	r5,-8(fp)
 40020c0:	e1bfff15 	stw	r6,-4(fp)
	spu_control((x << 14) | (y << 8) | (0x00FF & index));
 40020c4:	e0bffd17 	ldw	r2,-12(fp)
 40020c8:	100693ba 	slli	r3,r2,14
 40020cc:	e0bffe17 	ldw	r2,-8(fp)
 40020d0:	1004923a 	slli	r2,r2,8
 40020d4:	1886b03a 	or	r3,r3,r2
 40020d8:	e0bfff17 	ldw	r2,-4(fp)
 40020dc:	10803fcc 	andi	r2,r2,255
 40020e0:	1884b03a 	or	r2,r3,r2
 40020e4:	1009883a 	mov	r4,r2
 40020e8:	400026c0 	call	400026c <spu_control>
}
 40020ec:	0001883a 	nop
 40020f0:	e037883a 	mov	sp,fp
 40020f4:	dfc00117 	ldw	ra,4(sp)
 40020f8:	df000017 	ldw	fp,0(sp)
 40020fc:	dec00204 	addi	sp,sp,8
 4002100:	f800283a 	ret

04002104 <spu_set_map>:

void spu_set_map(int *map)
{
 4002104:	defffb04 	addi	sp,sp,-20
 4002108:	dfc00415 	stw	ra,16(sp)
 400210c:	df000315 	stw	fp,12(sp)
 4002110:	df000304 	addi	fp,sp,12
 4002114:	e13fff15 	stw	r4,-4(fp)
	for (int y = 0; y < SPU_MAP_HEIGHT; ++y) {
 4002118:	e03ffd15 	stw	zero,-12(fp)
 400211c:	00001b06 	br	400218c <spu_set_map+0x88>
		for (int x = 0; x < SPU_MAP_WIDTH; ++x) {
 4002120:	e03ffe15 	stw	zero,-8(fp)
 4002124:	00001306 	br	4002174 <spu_set_map+0x70>
			spu_set_sprite(x, y, map[y * SPU_MAP_WIDTH + x]);
 4002128:	01400a04 	movi	r5,40
 400212c:	e13ffd17 	ldw	r4,-12(fp)
 4002130:	40043840 	call	4004384 <__mulsi3>
 4002134:	1007883a 	mov	r3,r2
 4002138:	e0bffe17 	ldw	r2,-8(fp)
 400213c:	1885883a 	add	r2,r3,r2
 4002140:	1085883a 	add	r2,r2,r2
 4002144:	1085883a 	add	r2,r2,r2
 4002148:	1007883a 	mov	r3,r2
 400214c:	e0bfff17 	ldw	r2,-4(fp)
 4002150:	10c5883a 	add	r2,r2,r3
 4002154:	10800017 	ldw	r2,0(r2)
 4002158:	100d883a 	mov	r6,r2
 400215c:	e17ffd17 	ldw	r5,-12(fp)
 4002160:	e13ffe17 	ldw	r4,-8(fp)
 4002164:	40020a80 	call	40020a8 <spu_set_sprite>
}

void spu_set_map(int *map)
{
	for (int y = 0; y < SPU_MAP_HEIGHT; ++y) {
		for (int x = 0; x < SPU_MAP_WIDTH; ++x) {
 4002168:	e0bffe17 	ldw	r2,-8(fp)
 400216c:	10800044 	addi	r2,r2,1
 4002170:	e0bffe15 	stw	r2,-8(fp)
 4002174:	e0bffe17 	ldw	r2,-8(fp)
 4002178:	10800a10 	cmplti	r2,r2,40
 400217c:	103fea1e 	bne	r2,zero,4002128 <__alt_data_end+0xfc002128>
	spu_control((x << 14) | (y << 8) | (0x00FF & index));
}

void spu_set_map(int *map)
{
	for (int y = 0; y < SPU_MAP_HEIGHT; ++y) {
 4002180:	e0bffd17 	ldw	r2,-12(fp)
 4002184:	10800044 	addi	r2,r2,1
 4002188:	e0bffd15 	stw	r2,-12(fp)
 400218c:	e0bffd17 	ldw	r2,-12(fp)
 4002190:	10800790 	cmplti	r2,r2,30
 4002194:	103fe21e 	bne	r2,zero,4002120 <__alt_data_end+0xfc002120>
		for (int x = 0; x < SPU_MAP_WIDTH; ++x) {
			spu_set_sprite(x, y, map[y * SPU_MAP_WIDTH + x]);
		}
	}
}
 4002198:	0001883a 	nop
 400219c:	e037883a 	mov	sp,fp
 40021a0:	dfc00117 	ldw	ra,4(sp)
 40021a4:	df000017 	ldw	fp,0(sp)
 40021a8:	dec00204 	addi	sp,sp,8
 40021ac:	f800283a 	ret

040021b0 <HIDMProbe>:
/* HID Mouse probe. Called from USB state machine.                          */
/* assumes configuration length is less than 256 bytes                      */
/* looks for Class:03, Subclass: 01, Protocol: 02 in interface descriptor   */
/* sets mouse in boot protocol                                              */
/* assumes single configuration and interface configuration 0               */
BOOL HIDMProbe(BYTE addr, DWORD flags) {
 40021b0:	defff204 	addi	sp,sp,-56
 40021b4:	dfc00d15 	stw	ra,52(sp)
 40021b8:	df000c15 	stw	fp,48(sp)
 40021bc:	df000c04 	addi	fp,sp,48
 40021c0:	2005883a 	mov	r2,r4
 40021c4:	e17fff15 	stw	r5,-4(fp)
 40021c8:	e0bffe05 	stb	r2,-8(fp)
	BYTE tmpbyte;
	BYTE rcode;
	BYTE confvalue;
	WORD total_length;
	USB_DESCR* data_ptr = (USB_DESCR *) &bigbuf;
 40021cc:	008100b4 	movhi	r2,1026
 40021d0:	10a45c04 	addi	r2,r2,-28304
 40021d4:	e0bffa15 	stw	r2,-24(fp)
	BYTE* byte_ptr = bigbuf;
 40021d8:	008100b4 	movhi	r2,1026
 40021dc:	10a45c04 	addi	r2,r2,-28304
 40021e0:	e0bffb15 	stw	r2,-20(fp)
	rcode = XferGetConfDescr(addr, 0, CONF_DESCR_LEN, 0, bigbuf); //get configuration descriptor
 40021e4:	e0fffe03 	ldbu	r3,-8(fp)
 40021e8:	008100b4 	movhi	r2,1026
 40021ec:	10a45c04 	addi	r2,r2,-28304
 40021f0:	d8800415 	stw	r2,16(sp)
 40021f4:	00800244 	movi	r2,9
 40021f8:	d8800315 	stw	r2,12(sp)
 40021fc:	d8000215 	stw	zero,8(sp)
 4002200:	00800084 	movi	r2,2
 4002204:	d8800115 	stw	r2,4(sp)
 4002208:	d8000015 	stw	zero,0(sp)
 400220c:	01c00184 	movi	r7,6
 4002210:	01802004 	movi	r6,128
 4002214:	000b883a 	mov	r5,zero
 4002218:	1809883a 	mov	r4,r3
 400221c:	40033380 	call	4003338 <XferCtrlReq>
 4002220:	e0bffc05 	stb	r2,-16(fp)
	if (rcode) {   //error handling
 4002224:	e0bffc03 	ldbu	r2,-16(fp)
 4002228:	10000226 	beq	r2,zero,4002234 <HIDMProbe+0x84>
		//printf("unable to get configuration descriptor");
		return (FALSE);
 400222c:	0005883a 	mov	r2,zero
 4002230:	0000dc06 	br	40025a4 <HIDMProbe+0x3f4>
	}
	if (data_ptr->descr.config.wTotalLength > 256) {
 4002234:	e0bffa17 	ldw	r2,-24(fp)
 4002238:	1080008b 	ldhu	r2,2(r2)
 400223c:	10bfffcc 	andi	r2,r2,65535
 4002240:	10804070 	cmpltui	r2,r2,257
 4002244:	1000031e 	bne	r2,zero,4002254 <HIDMProbe+0xa4>
		total_length = 256;
 4002248:	00804004 	movi	r2,256
 400224c:	e0bff90d 	sth	r2,-28(fp)
 4002250:	00000306 	br	4002260 <HIDMProbe+0xb0>
	} else {
		total_length = data_ptr->descr.config.wTotalLength;
 4002254:	e0bffa17 	ldw	r2,-24(fp)
 4002258:	1080008b 	ldhu	r2,2(r2)
 400225c:	e0bff90d 	sth	r2,-28(fp)
	}
	rcode = XferGetConfDescr(addr, 0, total_length, 0, bigbuf); //get the whole configuration
 4002260:	e13ffe03 	ldbu	r4,-8(fp)
 4002264:	e0fff90b 	ldhu	r3,-28(fp)
 4002268:	008100b4 	movhi	r2,1026
 400226c:	10a45c04 	addi	r2,r2,-28304
 4002270:	d8800415 	stw	r2,16(sp)
 4002274:	d8c00315 	stw	r3,12(sp)
 4002278:	d8000215 	stw	zero,8(sp)
 400227c:	00800084 	movi	r2,2
 4002280:	d8800115 	stw	r2,4(sp)
 4002284:	d8000015 	stw	zero,0(sp)
 4002288:	01c00184 	movi	r7,6
 400228c:	01802004 	movi	r6,128
 4002290:	000b883a 	mov	r5,zero
 4002294:	40033380 	call	4003338 <XferCtrlReq>
 4002298:	e0bffc05 	stb	r2,-16(fp)
	if (rcode) {   //error handling
 400229c:	e0bffc03 	ldbu	r2,-16(fp)
 40022a0:	10000226 	beq	r2,zero,40022ac <HIDMProbe+0xfc>
		//printf("unable to get configuration");
		return (FALSE);
 40022a4:	0005883a 	mov	r2,zero
 40022a8:	0000be06 	br	40025a4 <HIDMProbe+0x3f4>
	}
	confvalue = data_ptr->descr.config.bConfigurationValue;
 40022ac:	e0bffa17 	ldw	r2,-24(fp)
 40022b0:	10800143 	ldbu	r2,5(r2)
 40022b4:	e0bffc45 	stb	r2,-15(fp)
	//printf("checking configuration value (length: %d): ",
	//		data_ptr->descr.config.wTotalLength);
	//for (int i = 0; i < data_ptr->descr.config.wTotalLength; i++) {
		//printf("%x ", (unsigned char) (bigbuf[i] & 0xff));
	//}
	while (byte_ptr < bigbuf + total_length) {
 40022b8:	0000b306 	br	4002588 <HIDMProbe+0x3d8>
		if (data_ptr->descr.config.bDescriptorType != USB_DESCRIPTOR_INTERFACE) {
 40022bc:	e0bffa17 	ldw	r2,-24(fp)
 40022c0:	10800043 	ldbu	r2,1(r2)
 40022c4:	10803fcc 	andi	r2,r2,255
 40022c8:	10800120 	cmpeqi	r2,r2,4
 40022cc:	1000091e 	bne	r2,zero,40022f4 <HIDMProbe+0x144>
			byte_ptr = byte_ptr + data_ptr->descr.config.bLength;
 40022d0:	e0bffa17 	ldw	r2,-24(fp)
 40022d4:	10800003 	ldbu	r2,0(r2)
 40022d8:	10803fcc 	andi	r2,r2,255
 40022dc:	e0fffb17 	ldw	r3,-20(fp)
 40022e0:	1885883a 	add	r2,r3,r2
 40022e4:	e0bffb15 	stw	r2,-20(fp)
			data_ptr = (USB_DESCR*) byte_ptr;
 40022e8:	e0bffb17 	ldw	r2,-20(fp)
 40022ec:	e0bffa15 	stw	r2,-24(fp)
 40022f0:	0000a506 	br	4002588 <HIDMProbe+0x3d8>
		} // if( data_ptr->descr.config.bDescriptorType != USB_DESCRIPTOR_INTERFACE
		else {
			//printf("starting interface parsing at byte location %d\n",
			//		data_ptr->descr.config.bLength);
			BYTE class = data_ptr->descr.interface.bInterfaceClass;
 40022f4:	e0bffa17 	ldw	r2,-24(fp)
 40022f8:	10800143 	ldbu	r2,5(r2)
 40022fc:	e0bffc85 	stb	r2,-14(fp)
			BYTE subclass = data_ptr->descr.interface.bInterfaceSubClass;
 4002300:	e0bffa17 	ldw	r2,-24(fp)
 4002304:	10800183 	ldbu	r2,6(r2)
 4002308:	e0bffcc5 	stb	r2,-13(fp)
			BYTE protocol = data_ptr->descr.interface.bInterfaceProtocol;
 400230c:	e0bffa17 	ldw	r2,-24(fp)
 4002310:	108001c3 	ldbu	r2,7(r2)
 4002314:	e0bffd05 	stb	r2,-12(fp)
			//printf("class %x, subclass %x, protocol %x,\n", class, subclass,
			//		protocol);
			//interface descriptor
			if (class == HID_INTF && subclass == BOOT_INTF_SUBCLASS
 4002318:	e0bffc83 	ldbu	r2,-14(fp)
 400231c:	108000d8 	cmpnei	r2,r2,3
 4002320:	1000971e 	bne	r2,zero,4002580 <HIDMProbe+0x3d0>
 4002324:	e0bffcc3 	ldbu	r2,-13(fp)
 4002328:	10800058 	cmpnei	r2,r2,1
 400232c:	1000941e 	bne	r2,zero,4002580 <HIDMProbe+0x3d0>
					&& protocol == HID_PROTOCOL_MOUSE) {
 4002330:	e0bffd03 	ldbu	r2,-12(fp)
 4002334:	10800098 	cmpnei	r2,r2,2
 4002338:	1000911e 	bne	r2,zero,4002580 <HIDMProbe+0x3d0>
				//detected a mouse
				devtable[addr].devclass = HID_M;                  //device class
 400233c:	e0fffe03 	ldbu	r3,-8(fp)
 4002340:	008100b4 	movhi	r2,1026
 4002344:	10a49c04 	addi	r2,r2,-28048
 4002348:	180690fa 	slli	r3,r3,3
 400234c:	10c5883a 	add	r2,r2,r3
 4002350:	10800104 	addi	r2,r2,4
 4002354:	00c00084 	movi	r3,2
 4002358:	10c00005 	stb	r3,0(r2)
				tmpbyte = devtable[addr].epinfo->MaxPktSize;
 400235c:	e0fffe03 	ldbu	r3,-8(fp)
 4002360:	008100b4 	movhi	r2,1026
 4002364:	10a49c04 	addi	r2,r2,-28048
 4002368:	180690fa 	slli	r3,r3,3
 400236c:	10c5883a 	add	r2,r2,r3
 4002370:	10800017 	ldw	r2,0(r2)
 4002374:	1080008b 	ldhu	r2,2(r2)
 4002378:	e0bffd45 	stb	r2,-11(fp)
				HID_init();                         //initialize data structures
 400237c:	40029c00 	call	40029c0 <HID_init>
				devtable[addr].epinfo = hid_ep; //switch endpoint information structure
 4002380:	e0fffe03 	ldbu	r3,-8(fp)
 4002384:	008100b4 	movhi	r2,1026
 4002388:	10a49c04 	addi	r2,r2,-28048
 400238c:	180690fa 	slli	r3,r3,3
 4002390:	10c7883a 	add	r3,r2,r3
 4002394:	00810074 	movhi	r2,1025
 4002398:	109f9804 	addi	r2,r2,32352
 400239c:	18800015 	stw	r2,0(r3)
				devtable[addr].epinfo[0].MaxPktSize = tmpbyte;
 40023a0:	e0fffe03 	ldbu	r3,-8(fp)
 40023a4:	008100b4 	movhi	r2,1026
 40023a8:	10a49c04 	addi	r2,r2,-28048
 40023ac:	180690fa 	slli	r3,r3,3
 40023b0:	10c5883a 	add	r2,r2,r3
 40023b4:	10800017 	ldw	r2,0(r2)
 40023b8:	e0fffd43 	ldbu	r3,-11(fp)
 40023bc:	10c0008d 	sth	r3,2(r2)
				hid_device.interface =
						data_ptr->descr.interface.bInterfaceNumber;
 40023c0:	e0bffa17 	ldw	r2,-24(fp)
 40023c4:	10800083 	ldbu	r2,2(r2)
				devtable[addr].devclass = HID_M;                  //device class
				tmpbyte = devtable[addr].epinfo->MaxPktSize;
				HID_init();                         //initialize data structures
				devtable[addr].epinfo = hid_ep; //switch endpoint information structure
				devtable[addr].epinfo[0].MaxPktSize = tmpbyte;
				hid_device.interface =
 40023c8:	d0a6f585 	stb	r2,-25642(gp)
						data_ptr->descr.interface.bInterfaceNumber;
				hid_device.addr = addr;
 40023cc:	e0bffe03 	ldbu	r2,-8(fp)
 40023d0:	d0a6f545 	stb	r2,-25643(gp)
				byte_ptr = byte_ptr + data_ptr->descr.config.bLength;
 40023d4:	e0bffa17 	ldw	r2,-24(fp)
 40023d8:	10800003 	ldbu	r2,0(r2)
 40023dc:	10803fcc 	andi	r2,r2,255
 40023e0:	e0fffb17 	ldw	r3,-20(fp)
 40023e4:	1885883a 	add	r2,r3,r2
 40023e8:	e0bffb15 	stw	r2,-20(fp)
				data_ptr = (USB_DESCR*) byte_ptr;
 40023ec:	e0bffb17 	ldw	r2,-20(fp)
 40023f0:	e0bffa15 	stw	r2,-24(fp)
				while (byte_ptr < bigbuf + total_length) {
 40023f4:	00005b06 	br	4002564 <HIDMProbe+0x3b4>
					if (data_ptr->descr.config.bDescriptorType
 40023f8:	e0bffa17 	ldw	r2,-24(fp)
 40023fc:	10800043 	ldbu	r2,1(r2)
 4002400:	10803fcc 	andi	r2,r2,255
 4002404:	10800160 	cmpeqi	r2,r2,5
 4002408:	1000091e 	bne	r2,zero,4002430 <HIDMProbe+0x280>
							!= USB_DESCRIPTOR_ENDPOINT) { //skip to endpoint descriptor
						byte_ptr = byte_ptr + data_ptr->descr.config.bLength;
 400240c:	e0bffa17 	ldw	r2,-24(fp)
 4002410:	10800003 	ldbu	r2,0(r2)
 4002414:	10803fcc 	andi	r2,r2,255
 4002418:	e0fffb17 	ldw	r3,-20(fp)
 400241c:	1885883a 	add	r2,r3,r2
 4002420:	e0bffb15 	stw	r2,-20(fp)
						data_ptr = (USB_DESCR*) byte_ptr;
 4002424:	e0bffb17 	ldw	r2,-20(fp)
 4002428:	e0bffa15 	stw	r2,-24(fp)
 400242c:	00004d06 	br	4002564 <HIDMProbe+0x3b4>
					} else {
						/* fill endpoint information structure */
						devtable[addr].epinfo[1].epAddr =
 4002430:	e0fffe03 	ldbu	r3,-8(fp)
 4002434:	008100b4 	movhi	r2,1026
 4002438:	10a49c04 	addi	r2,r2,-28048
 400243c:	180690fa 	slli	r3,r3,3
 4002440:	10c5883a 	add	r2,r2,r3
 4002444:	10800017 	ldw	r2,0(r2)
 4002448:	10800204 	addi	r2,r2,8
								data_ptr->descr.endpoint.bEndpointAddress;
 400244c:	e0fffa17 	ldw	r3,-24(fp)
 4002450:	18c00083 	ldbu	r3,2(r3)
							!= USB_DESCRIPTOR_ENDPOINT) { //skip to endpoint descriptor
						byte_ptr = byte_ptr + data_ptr->descr.config.bLength;
						data_ptr = (USB_DESCR*) byte_ptr;
					} else {
						/* fill endpoint information structure */
						devtable[addr].epinfo[1].epAddr =
 4002454:	10c00005 	stb	r3,0(r2)
								data_ptr->descr.endpoint.bEndpointAddress;
						devtable[addr].epinfo[1].Attr =
 4002458:	e0fffe03 	ldbu	r3,-8(fp)
 400245c:	008100b4 	movhi	r2,1026
 4002460:	10a49c04 	addi	r2,r2,-28048
 4002464:	180690fa 	slli	r3,r3,3
 4002468:	10c5883a 	add	r2,r2,r3
 400246c:	10800017 	ldw	r2,0(r2)
 4002470:	10800204 	addi	r2,r2,8
								data_ptr->descr.endpoint.bmAttributes;
 4002474:	e0fffa17 	ldw	r3,-24(fp)
 4002478:	18c000c3 	ldbu	r3,3(r3)
						data_ptr = (USB_DESCR*) byte_ptr;
					} else {
						/* fill endpoint information structure */
						devtable[addr].epinfo[1].epAddr =
								data_ptr->descr.endpoint.bEndpointAddress;
						devtable[addr].epinfo[1].Attr =
 400247c:	10c00045 	stb	r3,1(r2)
								data_ptr->descr.endpoint.bmAttributes;
						devtable[addr].epinfo[1].MaxPktSize =
 4002480:	e0fffe03 	ldbu	r3,-8(fp)
 4002484:	008100b4 	movhi	r2,1026
 4002488:	10a49c04 	addi	r2,r2,-28048
 400248c:	180690fa 	slli	r3,r3,3
 4002490:	10c5883a 	add	r2,r2,r3
 4002494:	10800017 	ldw	r2,0(r2)
 4002498:	10800204 	addi	r2,r2,8
								data_ptr->descr.endpoint.wMaxPacketSize;
 400249c:	e0fffa17 	ldw	r3,-24(fp)
 40024a0:	18c0010b 	ldhu	r3,4(r3)
						/* fill endpoint information structure */
						devtable[addr].epinfo[1].epAddr =
								data_ptr->descr.endpoint.bEndpointAddress;
						devtable[addr].epinfo[1].Attr =
								data_ptr->descr.endpoint.bmAttributes;
						devtable[addr].epinfo[1].MaxPktSize =
 40024a4:	10c0008d 	sth	r3,2(r2)
								data_ptr->descr.endpoint.wMaxPacketSize;
						devtable[addr].epinfo[1].Interval =
 40024a8:	e0fffe03 	ldbu	r3,-8(fp)
 40024ac:	008100b4 	movhi	r2,1026
 40024b0:	10a49c04 	addi	r2,r2,-28048
 40024b4:	180690fa 	slli	r3,r3,3
 40024b8:	10c5883a 	add	r2,r2,r3
 40024bc:	10800017 	ldw	r2,0(r2)
 40024c0:	10800204 	addi	r2,r2,8
								data_ptr->descr.endpoint.bInterval;
 40024c4:	e0fffa17 	ldw	r3,-24(fp)
 40024c8:	18c00183 	ldbu	r3,6(r3)
								data_ptr->descr.endpoint.bEndpointAddress;
						devtable[addr].epinfo[1].Attr =
								data_ptr->descr.endpoint.bmAttributes;
						devtable[addr].epinfo[1].MaxPktSize =
								data_ptr->descr.endpoint.wMaxPacketSize;
						devtable[addr].epinfo[1].Interval =
 40024cc:	10c00105 	stb	r3,4(r2)
								data_ptr->descr.endpoint.bInterval;
						// devtable[ addr ].epinfo[ 1 ].rcvToggle = bmRCVTOG0;
						/* configure device */
						rcode = XferSetConf(addr, 0, confvalue); //set configuration
 40024d0:	e0fffe03 	ldbu	r3,-8(fp)
 40024d4:	e0bffc43 	ldbu	r2,-15(fp)
 40024d8:	d8000415 	stw	zero,16(sp)
 40024dc:	d8000315 	stw	zero,12(sp)
 40024e0:	d8000215 	stw	zero,8(sp)
 40024e4:	d8000115 	stw	zero,4(sp)
 40024e8:	d8800015 	stw	r2,0(sp)
 40024ec:	01c00244 	movi	r7,9
 40024f0:	000d883a 	mov	r6,zero
 40024f4:	000b883a 	mov	r5,zero
 40024f8:	1809883a 	mov	r4,r3
 40024fc:	40033380 	call	4003338 <XferCtrlReq>
 4002500:	e0bffc05 	stb	r2,-16(fp)
						if (rcode) {   //error handling
 4002504:	e0bffc03 	ldbu	r2,-16(fp)
 4002508:	10000226 	beq	r2,zero,4002514 <HIDMProbe+0x364>
							return (FALSE);
 400250c:	0005883a 	mov	r2,zero
 4002510:	00002406 	br	40025a4 <HIDMProbe+0x3f4>
						}
						rcode = XferSetProto(addr, 0, hid_device.interface,
 4002514:	e0fffe03 	ldbu	r3,-8(fp)
 4002518:	d0a6f583 	ldbu	r2,-25642(gp)
 400251c:	10803fcc 	andi	r2,r2,255
 4002520:	d8000415 	stw	zero,16(sp)
 4002524:	d8000315 	stw	zero,12(sp)
 4002528:	d8800215 	stw	r2,8(sp)
 400252c:	d8000115 	stw	zero,4(sp)
 4002530:	d8000015 	stw	zero,0(sp)
 4002534:	01c002c4 	movi	r7,11
 4002538:	01800844 	movi	r6,33
 400253c:	000b883a 	mov	r5,zero
 4002540:	1809883a 	mov	r4,r3
 4002544:	40033380 	call	4003338 <XferCtrlReq>
 4002548:	e0bffc05 	stb	r2,-16(fp)
								BOOT_PROTOCOL);
						if (rcode) {   //error handling
 400254c:	e0bffc03 	ldbu	r2,-16(fp)
 4002550:	10000226 	beq	r2,zero,400255c <HIDMProbe+0x3ac>
							return (FALSE);
 4002554:	0005883a 	mov	r2,zero
 4002558:	00001206 	br	40025a4 <HIDMProbe+0x3f4>
						} else {
							return (TRUE);
 400255c:	00800044 	movi	r2,1
 4002560:	00001006 	br	40025a4 <HIDMProbe+0x3f4>
				hid_device.interface =
						data_ptr->descr.interface.bInterfaceNumber;
				hid_device.addr = addr;
				byte_ptr = byte_ptr + data_ptr->descr.config.bLength;
				data_ptr = (USB_DESCR*) byte_ptr;
				while (byte_ptr < bigbuf + total_length) {
 4002564:	e0fff90b 	ldhu	r3,-28(fp)
 4002568:	008100b4 	movhi	r2,1026
 400256c:	10a45c04 	addi	r2,r2,-28304
 4002570:	1885883a 	add	r2,r3,r2
 4002574:	e0fffb17 	ldw	r3,-20(fp)
 4002578:	18bf9f36 	bltu	r3,r2,40023f8 <__alt_data_end+0xfc0023f8>
			BYTE subclass = data_ptr->descr.interface.bInterfaceSubClass;
			BYTE protocol = data_ptr->descr.interface.bInterfaceProtocol;
			//printf("class %x, subclass %x, protocol %x,\n", class, subclass,
			//		protocol);
			//interface descriptor
			if (class == HID_INTF && subclass == BOOT_INTF_SUBCLASS
 400257c:	00000206 	br	4002588 <HIDMProbe+0x3d8>
						}
					}
				}   //while( byte_ptr....
			}   //if (Class matches
			else { //if class don't match; die on first interface. Not really correct
				return (FALSE);
 4002580:	0005883a 	mov	r2,zero
 4002584:	00000706 	br	40025a4 <HIDMProbe+0x3f4>
	//printf("checking configuration value (length: %d): ",
	//		data_ptr->descr.config.wTotalLength);
	//for (int i = 0; i < data_ptr->descr.config.wTotalLength; i++) {
		//printf("%x ", (unsigned char) (bigbuf[i] & 0xff));
	//}
	while (byte_ptr < bigbuf + total_length) {
 4002588:	e0fff90b 	ldhu	r3,-28(fp)
 400258c:	008100b4 	movhi	r2,1026
 4002590:	10a45c04 	addi	r2,r2,-28304
 4002594:	1885883a 	add	r2,r3,r2
 4002598:	e0fffb17 	ldw	r3,-20(fp)
 400259c:	18bf4736 	bltu	r3,r2,40022bc <__alt_data_end+0xfc0022bc>
			else { //if class don't match; die on first interface. Not really correct
				return (FALSE);
			}
		} //else if( data_ptr->
	} // while( byte_ptr < &buf + total_length
	return (FALSE);
 40025a0:	0005883a 	mov	r2,zero
}
 40025a4:	e037883a 	mov	sp,fp
 40025a8:	dfc00117 	ldw	ra,4(sp)
 40025ac:	df000017 	ldw	fp,0(sp)
 40025b0:	dec00204 	addi	sp,sp,8
 40025b4:	f800283a 	ret

040025b8 <HIDKProbe>:
/* HID Keyboard probe. Called from USB state machine.                           */
/* assumes configuration length is less than 256 bytes                          */
/* looks for Class:03, Subclass: 01, Protocol: 01 in interface descriptor       */
/* sets keyboard in boot protocol                                               */
/* assumes single configuration, single endpoint, and interface configuration 0 */
BOOL HIDKProbe(BYTE addr, DWORD flags) {
 40025b8:	defff204 	addi	sp,sp,-56
 40025bc:	dfc00d15 	stw	ra,52(sp)
 40025c0:	df000c15 	stw	fp,48(sp)
 40025c4:	df000c04 	addi	fp,sp,48
 40025c8:	2005883a 	mov	r2,r4
 40025cc:	e17fff15 	stw	r5,-4(fp)
 40025d0:	e0bffe05 	stb	r2,-8(fp)
	BYTE tmpbyte;
	BYTE rcode;
	BYTE confvalue;
	WORD total_length;
	USB_DESCR* data_ptr = (USB_DESCR *) &bigbuf;
 40025d4:	008100b4 	movhi	r2,1026
 40025d8:	10a45c04 	addi	r2,r2,-28304
 40025dc:	e0bffa15 	stw	r2,-24(fp)
	BYTE* byte_ptr = bigbuf;
 40025e0:	008100b4 	movhi	r2,1026
 40025e4:	10a45c04 	addi	r2,r2,-28304
 40025e8:	e0bffb15 	stw	r2,-20(fp)
	rcode = XferGetConfDescr(addr, 0, CONF_DESCR_LEN, 0, bigbuf); //get configuration descriptor
 40025ec:	e0fffe03 	ldbu	r3,-8(fp)
 40025f0:	008100b4 	movhi	r2,1026
 40025f4:	10a45c04 	addi	r2,r2,-28304
 40025f8:	d8800415 	stw	r2,16(sp)
 40025fc:	00800244 	movi	r2,9
 4002600:	d8800315 	stw	r2,12(sp)
 4002604:	d8000215 	stw	zero,8(sp)
 4002608:	00800084 	movi	r2,2
 400260c:	d8800115 	stw	r2,4(sp)
 4002610:	d8000015 	stw	zero,0(sp)
 4002614:	01c00184 	movi	r7,6
 4002618:	01802004 	movi	r6,128
 400261c:	000b883a 	mov	r5,zero
 4002620:	1809883a 	mov	r4,r3
 4002624:	40033380 	call	4003338 <XferCtrlReq>
 4002628:	e0bffc05 	stb	r2,-16(fp)
	if (rcode) {   //error handling           
 400262c:	e0bffc03 	ldbu	r2,-16(fp)
 4002630:	10000226 	beq	r2,zero,400263c <HIDKProbe+0x84>
		return (FALSE);
 4002634:	0005883a 	mov	r2,zero
 4002638:	0000dc06 	br	40029ac <HIDKProbe+0x3f4>
	}
	if (data_ptr->descr.config.wTotalLength > 256) {
 400263c:	e0bffa17 	ldw	r2,-24(fp)
 4002640:	1080008b 	ldhu	r2,2(r2)
 4002644:	10bfffcc 	andi	r2,r2,65535
 4002648:	10804070 	cmpltui	r2,r2,257
 400264c:	1000031e 	bne	r2,zero,400265c <HIDKProbe+0xa4>
		total_length = 256;
 4002650:	00804004 	movi	r2,256
 4002654:	e0bff90d 	sth	r2,-28(fp)
 4002658:	00000306 	br	4002668 <HIDKProbe+0xb0>
	} else {
		total_length = data_ptr->descr.config.wTotalLength;
 400265c:	e0bffa17 	ldw	r2,-24(fp)
 4002660:	1080008b 	ldhu	r2,2(r2)
 4002664:	e0bff90d 	sth	r2,-28(fp)
	}
	rcode = XferGetConfDescr(addr, 0, total_length, 0, bigbuf); //get the whole configuration
 4002668:	e13ffe03 	ldbu	r4,-8(fp)
 400266c:	e0fff90b 	ldhu	r3,-28(fp)
 4002670:	008100b4 	movhi	r2,1026
 4002674:	10a45c04 	addi	r2,r2,-28304
 4002678:	d8800415 	stw	r2,16(sp)
 400267c:	d8c00315 	stw	r3,12(sp)
 4002680:	d8000215 	stw	zero,8(sp)
 4002684:	00800084 	movi	r2,2
 4002688:	d8800115 	stw	r2,4(sp)
 400268c:	d8000015 	stw	zero,0(sp)
 4002690:	01c00184 	movi	r7,6
 4002694:	01802004 	movi	r6,128
 4002698:	000b883a 	mov	r5,zero
 400269c:	40033380 	call	4003338 <XferCtrlReq>
 40026a0:	e0bffc05 	stb	r2,-16(fp)
	if (rcode) {   //error handling
 40026a4:	e0bffc03 	ldbu	r2,-16(fp)
 40026a8:	10000226 	beq	r2,zero,40026b4 <HIDKProbe+0xfc>
		return (FALSE);
 40026ac:	0005883a 	mov	r2,zero
 40026b0:	0000be06 	br	40029ac <HIDKProbe+0x3f4>
	}
	confvalue = data_ptr->descr.config.bConfigurationValue; //save configuration value to use later
 40026b4:	e0bffa17 	ldw	r2,-24(fp)
 40026b8:	10800143 	ldbu	r2,5(r2)
 40026bc:	e0bffc45 	stb	r2,-15(fp)
	while (byte_ptr < bigbuf + total_length) {             //parse configuration
 40026c0:	0000b306 	br	4002990 <HIDKProbe+0x3d8>
		if (data_ptr->descr.config.bDescriptorType != USB_DESCRIPTOR_INTERFACE) { //skip to the next descriptor
 40026c4:	e0bffa17 	ldw	r2,-24(fp)
 40026c8:	10800043 	ldbu	r2,1(r2)
 40026cc:	10803fcc 	andi	r2,r2,255
 40026d0:	10800120 	cmpeqi	r2,r2,4
 40026d4:	1000091e 	bne	r2,zero,40026fc <HIDKProbe+0x144>
			byte_ptr = byte_ptr + data_ptr->descr.config.bLength;
 40026d8:	e0bffa17 	ldw	r2,-24(fp)
 40026dc:	10800003 	ldbu	r2,0(r2)
 40026e0:	10803fcc 	andi	r2,r2,255
 40026e4:	e0fffb17 	ldw	r3,-20(fp)
 40026e8:	1885883a 	add	r2,r3,r2
 40026ec:	e0bffb15 	stw	r2,-20(fp)
			data_ptr = (USB_DESCR*) byte_ptr;
 40026f0:	e0bffb17 	ldw	r2,-20(fp)
 40026f4:	e0bffa15 	stw	r2,-24(fp)
 40026f8:	0000a506 	br	4002990 <HIDKProbe+0x3d8>
		} // if( data_ptr->descr.config.bDescriptorType != USB_DESCRIPTOR_INTERFACE
		else {
			//printf("starting interface parsing at byte location %d\n",
			//		data_ptr->descr.config.bLength);
			BYTE class = data_ptr->descr.interface.bInterfaceClass;
 40026fc:	e0bffa17 	ldw	r2,-24(fp)
 4002700:	10800143 	ldbu	r2,5(r2)
 4002704:	e0bffc85 	stb	r2,-14(fp)
			BYTE subclass = data_ptr->descr.interface.bInterfaceSubClass;
 4002708:	e0bffa17 	ldw	r2,-24(fp)
 400270c:	10800183 	ldbu	r2,6(r2)
 4002710:	e0bffcc5 	stb	r2,-13(fp)
			BYTE protocol = data_ptr->descr.interface.bInterfaceProtocol;
 4002714:	e0bffa17 	ldw	r2,-24(fp)
 4002718:	108001c3 	ldbu	r2,7(r2)
 400271c:	e0bffd05 	stb	r2,-12(fp)
			//printf("class %x, subclass %x, protocol %x,\n", class, subclass,
			//		protocol);
			//interface descriptor
			if (class == HID_INTF && subclass == BOOT_INTF_SUBCLASS
 4002720:	e0bffc83 	ldbu	r2,-14(fp)
 4002724:	108000d8 	cmpnei	r2,r2,3
 4002728:	1000971e 	bne	r2,zero,4002988 <HIDKProbe+0x3d0>
 400272c:	e0bffcc3 	ldbu	r2,-13(fp)
 4002730:	10800058 	cmpnei	r2,r2,1
 4002734:	1000941e 	bne	r2,zero,4002988 <HIDKProbe+0x3d0>
					&& protocol == HID_PROTOCOL_KEYBOARD) {
 4002738:	e0bffd03 	ldbu	r2,-12(fp)
 400273c:	10800058 	cmpnei	r2,r2,1
 4002740:	1000911e 	bne	r2,zero,4002988 <HIDKProbe+0x3d0>
				//detected a keyboard
				devtable[addr].devclass = HID_K;             //fill device class
 4002744:	e0fffe03 	ldbu	r3,-8(fp)
 4002748:	008100b4 	movhi	r2,1026
 400274c:	10a49c04 	addi	r2,r2,-28048
 4002750:	180690fa 	slli	r3,r3,3
 4002754:	10c5883a 	add	r2,r2,r3
 4002758:	10800104 	addi	r2,r2,4
 400275c:	00c00044 	movi	r3,1
 4002760:	10c00005 	stb	r3,0(r2)
				tmpbyte = devtable[addr].epinfo->MaxPktSize; //save max.packet size
 4002764:	e0fffe03 	ldbu	r3,-8(fp)
 4002768:	008100b4 	movhi	r2,1026
 400276c:	10a49c04 	addi	r2,r2,-28048
 4002770:	180690fa 	slli	r3,r3,3
 4002774:	10c5883a 	add	r2,r2,r3
 4002778:	10800017 	ldw	r2,0(r2)
 400277c:	1080008b 	ldhu	r2,2(r2)
 4002780:	e0bffd45 	stb	r2,-11(fp)
				HID_init();                         //initialize data structures
 4002784:	40029c00 	call	40029c0 <HID_init>
				devtable[addr].epinfo = hid_ep; //switch endpoint information structure
 4002788:	e0fffe03 	ldbu	r3,-8(fp)
 400278c:	008100b4 	movhi	r2,1026
 4002790:	10a49c04 	addi	r2,r2,-28048
 4002794:	180690fa 	slli	r3,r3,3
 4002798:	10c7883a 	add	r3,r2,r3
 400279c:	00810074 	movhi	r2,1025
 40027a0:	109f9804 	addi	r2,r2,32352
 40027a4:	18800015 	stw	r2,0(r3)
				devtable[addr].epinfo[0].MaxPktSize = tmpbyte; //fill in max.packet size
 40027a8:	e0fffe03 	ldbu	r3,-8(fp)
 40027ac:	008100b4 	movhi	r2,1026
 40027b0:	10a49c04 	addi	r2,r2,-28048
 40027b4:	180690fa 	slli	r3,r3,3
 40027b8:	10c5883a 	add	r2,r2,r3
 40027bc:	10800017 	ldw	r2,0(r2)
 40027c0:	e0fffd43 	ldbu	r3,-11(fp)
 40027c4:	10c0008d 	sth	r3,2(r2)
				hid_device.interface =
						data_ptr->descr.interface.bInterfaceNumber; //fill in interface number to be used in HID requests
 40027c8:	e0bffa17 	ldw	r2,-24(fp)
 40027cc:	10800083 	ldbu	r2,2(r2)
				devtable[addr].devclass = HID_K;             //fill device class
				tmpbyte = devtable[addr].epinfo->MaxPktSize; //save max.packet size
				HID_init();                         //initialize data structures
				devtable[addr].epinfo = hid_ep; //switch endpoint information structure
				devtable[addr].epinfo[0].MaxPktSize = tmpbyte; //fill in max.packet size
				hid_device.interface =
 40027d0:	d0a6f585 	stb	r2,-25642(gp)
						data_ptr->descr.interface.bInterfaceNumber; //fill in interface number to be used in HID requests
				hid_device.addr = addr;                        //fill in address
 40027d4:	e0bffe03 	ldbu	r2,-8(fp)
 40027d8:	d0a6f545 	stb	r2,-25643(gp)
				byte_ptr = byte_ptr + data_ptr->descr.config.bLength; //skip to the next descriptor
 40027dc:	e0bffa17 	ldw	r2,-24(fp)
 40027e0:	10800003 	ldbu	r2,0(r2)
 40027e4:	10803fcc 	andi	r2,r2,255
 40027e8:	e0fffb17 	ldw	r3,-20(fp)
 40027ec:	1885883a 	add	r2,r3,r2
 40027f0:	e0bffb15 	stw	r2,-20(fp)
				data_ptr = (USB_DESCR*) byte_ptr;
 40027f4:	e0bffb17 	ldw	r2,-20(fp)
 40027f8:	e0bffa15 	stw	r2,-24(fp)
				while (byte_ptr < bigbuf + total_length) {
 40027fc:	00005b06 	br	400296c <HIDKProbe+0x3b4>
					if (data_ptr->descr.config.bDescriptorType
 4002800:	e0bffa17 	ldw	r2,-24(fp)
 4002804:	10800043 	ldbu	r2,1(r2)
 4002808:	10803fcc 	andi	r2,r2,255
 400280c:	10800160 	cmpeqi	r2,r2,5
 4002810:	1000091e 	bne	r2,zero,4002838 <HIDKProbe+0x280>
							!= USB_DESCRIPTOR_ENDPOINT) { //skip to endpoint descriptor
						byte_ptr = byte_ptr + data_ptr->descr.config.bLength;
 4002814:	e0bffa17 	ldw	r2,-24(fp)
 4002818:	10800003 	ldbu	r2,0(r2)
 400281c:	10803fcc 	andi	r2,r2,255
 4002820:	e0fffb17 	ldw	r3,-20(fp)
 4002824:	1885883a 	add	r2,r3,r2
 4002828:	e0bffb15 	stw	r2,-20(fp)
						data_ptr = (USB_DESCR*) byte_ptr;
 400282c:	e0bffb17 	ldw	r2,-20(fp)
 4002830:	e0bffa15 	stw	r2,-24(fp)
 4002834:	00004d06 	br	400296c <HIDKProbe+0x3b4>
					} else {
						/* fill endpoint information structure */
						devtable[addr].epinfo[1].epAddr =
 4002838:	e0fffe03 	ldbu	r3,-8(fp)
 400283c:	008100b4 	movhi	r2,1026
 4002840:	10a49c04 	addi	r2,r2,-28048
 4002844:	180690fa 	slli	r3,r3,3
 4002848:	10c5883a 	add	r2,r2,r3
 400284c:	10800017 	ldw	r2,0(r2)
 4002850:	10800204 	addi	r2,r2,8
								data_ptr->descr.endpoint.bEndpointAddress;
 4002854:	e0fffa17 	ldw	r3,-24(fp)
 4002858:	18c00083 	ldbu	r3,2(r3)
							!= USB_DESCRIPTOR_ENDPOINT) { //skip to endpoint descriptor
						byte_ptr = byte_ptr + data_ptr->descr.config.bLength;
						data_ptr = (USB_DESCR*) byte_ptr;
					} else {
						/* fill endpoint information structure */
						devtable[addr].epinfo[1].epAddr =
 400285c:	10c00005 	stb	r3,0(r2)
								data_ptr->descr.endpoint.bEndpointAddress;
						devtable[addr].epinfo[1].Attr =
 4002860:	e0fffe03 	ldbu	r3,-8(fp)
 4002864:	008100b4 	movhi	r2,1026
 4002868:	10a49c04 	addi	r2,r2,-28048
 400286c:	180690fa 	slli	r3,r3,3
 4002870:	10c5883a 	add	r2,r2,r3
 4002874:	10800017 	ldw	r2,0(r2)
 4002878:	10800204 	addi	r2,r2,8
								data_ptr->descr.endpoint.bmAttributes;
 400287c:	e0fffa17 	ldw	r3,-24(fp)
 4002880:	18c000c3 	ldbu	r3,3(r3)
						data_ptr = (USB_DESCR*) byte_ptr;
					} else {
						/* fill endpoint information structure */
						devtable[addr].epinfo[1].epAddr =
								data_ptr->descr.endpoint.bEndpointAddress;
						devtable[addr].epinfo[1].Attr =
 4002884:	10c00045 	stb	r3,1(r2)
								data_ptr->descr.endpoint.bmAttributes;
						devtable[addr].epinfo[1].MaxPktSize =
 4002888:	e0fffe03 	ldbu	r3,-8(fp)
 400288c:	008100b4 	movhi	r2,1026
 4002890:	10a49c04 	addi	r2,r2,-28048
 4002894:	180690fa 	slli	r3,r3,3
 4002898:	10c5883a 	add	r2,r2,r3
 400289c:	10800017 	ldw	r2,0(r2)
 40028a0:	10800204 	addi	r2,r2,8
								data_ptr->descr.endpoint.wMaxPacketSize;
 40028a4:	e0fffa17 	ldw	r3,-24(fp)
 40028a8:	18c0010b 	ldhu	r3,4(r3)
						/* fill endpoint information structure */
						devtable[addr].epinfo[1].epAddr =
								data_ptr->descr.endpoint.bEndpointAddress;
						devtable[addr].epinfo[1].Attr =
								data_ptr->descr.endpoint.bmAttributes;
						devtable[addr].epinfo[1].MaxPktSize =
 40028ac:	10c0008d 	sth	r3,2(r2)
								data_ptr->descr.endpoint.wMaxPacketSize;
						devtable[addr].epinfo[1].Interval =
 40028b0:	e0fffe03 	ldbu	r3,-8(fp)
 40028b4:	008100b4 	movhi	r2,1026
 40028b8:	10a49c04 	addi	r2,r2,-28048
 40028bc:	180690fa 	slli	r3,r3,3
 40028c0:	10c5883a 	add	r2,r2,r3
 40028c4:	10800017 	ldw	r2,0(r2)
 40028c8:	10800204 	addi	r2,r2,8
								data_ptr->descr.endpoint.bInterval;
 40028cc:	e0fffa17 	ldw	r3,-24(fp)
 40028d0:	18c00183 	ldbu	r3,6(r3)
								data_ptr->descr.endpoint.bEndpointAddress;
						devtable[addr].epinfo[1].Attr =
								data_ptr->descr.endpoint.bmAttributes;
						devtable[addr].epinfo[1].MaxPktSize =
								data_ptr->descr.endpoint.wMaxPacketSize;
						devtable[addr].epinfo[1].Interval =
 40028d4:	10c00105 	stb	r3,4(r2)
								data_ptr->descr.endpoint.bInterval;
						/* configure device */
						rcode = XferSetConf(addr, 0, confvalue); //set configuration
 40028d8:	e0fffe03 	ldbu	r3,-8(fp)
 40028dc:	e0bffc43 	ldbu	r2,-15(fp)
 40028e0:	d8000415 	stw	zero,16(sp)
 40028e4:	d8000315 	stw	zero,12(sp)
 40028e8:	d8000215 	stw	zero,8(sp)
 40028ec:	d8000115 	stw	zero,4(sp)
 40028f0:	d8800015 	stw	r2,0(sp)
 40028f4:	01c00244 	movi	r7,9
 40028f8:	000d883a 	mov	r6,zero
 40028fc:	000b883a 	mov	r5,zero
 4002900:	1809883a 	mov	r4,r3
 4002904:	40033380 	call	4003338 <XferCtrlReq>
 4002908:	e0bffc05 	stb	r2,-16(fp)
						if (rcode) {   //error handling
 400290c:	e0bffc03 	ldbu	r2,-16(fp)
 4002910:	10000226 	beq	r2,zero,400291c <HIDKProbe+0x364>
							return (FALSE);
 4002914:	0005883a 	mov	r2,zero
 4002918:	00002406 	br	40029ac <HIDKProbe+0x3f4>
						}
						rcode = XferSetProto(addr, 0, hid_device.interface,
 400291c:	e0fffe03 	ldbu	r3,-8(fp)
 4002920:	d0a6f583 	ldbu	r2,-25642(gp)
 4002924:	10803fcc 	andi	r2,r2,255
 4002928:	d8000415 	stw	zero,16(sp)
 400292c:	d8000315 	stw	zero,12(sp)
 4002930:	d8800215 	stw	r2,8(sp)
 4002934:	d8000115 	stw	zero,4(sp)
 4002938:	d8000015 	stw	zero,0(sp)
 400293c:	01c002c4 	movi	r7,11
 4002940:	01800844 	movi	r6,33
 4002944:	000b883a 	mov	r5,zero
 4002948:	1809883a 	mov	r4,r3
 400294c:	40033380 	call	4003338 <XferCtrlReq>
 4002950:	e0bffc05 	stb	r2,-16(fp)
								BOOT_PROTOCOL);
						if (rcode) {   //error handling
 4002954:	e0bffc03 	ldbu	r2,-16(fp)
 4002958:	10000226 	beq	r2,zero,4002964 <HIDKProbe+0x3ac>
							return (FALSE);
 400295c:	0005883a 	mov	r2,zero
 4002960:	00001206 	br	40029ac <HIDKProbe+0x3f4>
						} else {
							return (TRUE);
 4002964:	00800044 	movi	r2,1
 4002968:	00001006 	br	40029ac <HIDKProbe+0x3f4>
				hid_device.interface =
						data_ptr->descr.interface.bInterfaceNumber; //fill in interface number to be used in HID requests
				hid_device.addr = addr;                        //fill in address
				byte_ptr = byte_ptr + data_ptr->descr.config.bLength; //skip to the next descriptor
				data_ptr = (USB_DESCR*) byte_ptr;
				while (byte_ptr < bigbuf + total_length) {
 400296c:	e0fff90b 	ldhu	r3,-28(fp)
 4002970:	008100b4 	movhi	r2,1026
 4002974:	10a45c04 	addi	r2,r2,-28304
 4002978:	1885883a 	add	r2,r3,r2
 400297c:	e0fffb17 	ldw	r3,-20(fp)
 4002980:	18bf9f36 	bltu	r3,r2,4002800 <__alt_data_end+0xfc002800>
			BYTE subclass = data_ptr->descr.interface.bInterfaceSubClass;
			BYTE protocol = data_ptr->descr.interface.bInterfaceProtocol;
			//printf("class %x, subclass %x, protocol %x,\n", class, subclass,
			//		protocol);
			//interface descriptor
			if (class == HID_INTF && subclass == BOOT_INTF_SUBCLASS
 4002984:	00000206 	br	4002990 <HIDKProbe+0x3d8>
						}
					}
				}   //while( byte_ptr....
			}   //if (Class matches
			else { //if class don't match; stop processing after first interface. Not really correct
				return (FALSE);
 4002988:	0005883a 	mov	r2,zero
 400298c:	00000706 	br	40029ac <HIDKProbe+0x3f4>
	rcode = XferGetConfDescr(addr, 0, total_length, 0, bigbuf); //get the whole configuration
	if (rcode) {   //error handling
		return (FALSE);
	}
	confvalue = data_ptr->descr.config.bConfigurationValue; //save configuration value to use later
	while (byte_ptr < bigbuf + total_length) {             //parse configuration
 4002990:	e0fff90b 	ldhu	r3,-28(fp)
 4002994:	008100b4 	movhi	r2,1026
 4002998:	10a45c04 	addi	r2,r2,-28304
 400299c:	1885883a 	add	r2,r3,r2
 40029a0:	e0fffb17 	ldw	r3,-20(fp)
 40029a4:	18bf4736 	bltu	r3,r2,40026c4 <__alt_data_end+0xfc0026c4>
			else { //if class don't match; stop processing after first interface. Not really correct
				return (FALSE);
			}
		} //else if( data_ptr->
	} // while( byte_ptr < &buf + total_length
	return (FALSE);
 40029a8:	0005883a 	mov	r2,zero
}
 40029ac:	e037883a 	mov	sp,fp
 40029b0:	dfc00117 	ldw	ra,4(sp)
 40029b4:	df000017 	ldw	fp,0(sp)
 40029b8:	dec00204 	addi	sp,sp,8
 40029bc:	f800283a 	ret

040029c0 <HID_init>:
/* HID data structures initialization */
void HID_init(void) {
 40029c0:	deffff04 	addi	sp,sp,-4
 40029c4:	df000015 	stw	fp,0(sp)
 40029c8:	d839883a 	mov	fp,sp
	hid_ep[1].sndToggle = bmSNDTOG0;
 40029cc:	00810074 	movhi	r2,1025
 40029d0:	109f9804 	addi	r2,r2,32352
 40029d4:	00c01004 	movi	r3,64
 40029d8:	10c00345 	stb	r3,13(r2)
	hid_ep[1].rcvToggle = bmRCVTOG0;
 40029dc:	00810074 	movhi	r2,1025
 40029e0:	109f9804 	addi	r2,r2,32352
 40029e4:	00c00404 	movi	r3,16
 40029e8:	10c00385 	stb	r3,14(r2)
}
 40029ec:	0001883a 	nop
 40029f0:	e037883a 	mov	sp,fp
 40029f4:	df000017 	ldw	fp,0(sp)
 40029f8:	dec00104 	addi	sp,sp,4
 40029fc:	f800283a 	ret

04002a00 <mousePoll>:
/* poll boot mouse */
BYTE mousePoll(BOOT_MOUSE_REPORT* buf) {
 4002a00:	defffb04 	addi	sp,sp,-20
 4002a04:	dfc00415 	stw	ra,16(sp)
 4002a08:	df000315 	stw	fp,12(sp)
 4002a0c:	df000304 	addi	fp,sp,12
 4002a10:	e13fff15 	stw	r4,-4(fp)
	BYTE rcode;
	MAXreg_wr( rPERADDR, hid_device.addr);    //set peripheral address
 4002a14:	d0a6f543 	ldbu	r2,-25643(gp)
 4002a18:	10803fcc 	andi	r2,r2,255
 4002a1c:	100b883a 	mov	r5,r2
 4002a20:	01003804 	movi	r4,224
 4002a24:	4002bdc0 	call	4002bdc <MAXreg_wr>
	rcode = XferInTransfer(hid_device.addr, 1, 8, (BYTE*) buf,
 4002a28:	d0a6f543 	ldbu	r2,-25643(gp)
 4002a2c:	11003fcc 	andi	r4,r2,255
			devtable[hid_device.addr].epinfo[1].MaxPktSize);
 4002a30:	d0a6f543 	ldbu	r2,-25643(gp)
 4002a34:	10c03fcc 	andi	r3,r2,255
 4002a38:	008100b4 	movhi	r2,1026
 4002a3c:	10a49c04 	addi	r2,r2,-28048
 4002a40:	180690fa 	slli	r3,r3,3
 4002a44:	10c5883a 	add	r2,r2,r3
 4002a48:	10800017 	ldw	r2,0(r2)
 4002a4c:	10800204 	addi	r2,r2,8
 4002a50:	1080008b 	ldhu	r2,2(r2)
}
/* poll boot mouse */
BYTE mousePoll(BOOT_MOUSE_REPORT* buf) {
	BYTE rcode;
	MAXreg_wr( rPERADDR, hid_device.addr);    //set peripheral address
	rcode = XferInTransfer(hid_device.addr, 1, 8, (BYTE*) buf,
 4002a54:	10803fcc 	andi	r2,r2,255
 4002a58:	d8800015 	stw	r2,0(sp)
 4002a5c:	e1ffff17 	ldw	r7,-4(fp)
 4002a60:	01800204 	movi	r6,8
 4002a64:	01400044 	movi	r5,1
 4002a68:	400375c0 	call	400375c <XferInTransfer>
 4002a6c:	e0bffe05 	stb	r2,-8(fp)
			devtable[hid_device.addr].epinfo[1].MaxPktSize);
	return (rcode);
 4002a70:	e0bffe03 	ldbu	r2,-8(fp)
}
 4002a74:	e037883a 	mov	sp,fp
 4002a78:	dfc00117 	ldw	ra,4(sp)
 4002a7c:	df000017 	ldw	fp,0(sp)
 4002a80:	dec00204 	addi	sp,sp,8
 4002a84:	f800283a 	ret

04002a88 <kbdPoll>:
/* poll boot keyboard */
BYTE kbdPoll(BOOT_KBD_REPORT* buf) {
 4002a88:	defffb04 	addi	sp,sp,-20
 4002a8c:	dfc00415 	stw	ra,16(sp)
 4002a90:	df000315 	stw	fp,12(sp)
 4002a94:	df000304 	addi	fp,sp,12
 4002a98:	e13fff15 	stw	r4,-4(fp)
	BYTE rcode;
	MAXreg_wr( rPERADDR, hid_device.addr);    //set peripheral address
 4002a9c:	d0a6f543 	ldbu	r2,-25643(gp)
 4002aa0:	10803fcc 	andi	r2,r2,255
 4002aa4:	100b883a 	mov	r5,r2
 4002aa8:	01003804 	movi	r4,224
 4002aac:	4002bdc0 	call	4002bdc <MAXreg_wr>
	rcode = XferInTransfer(hid_device.addr, 1, 8, (BYTE*) buf,
 4002ab0:	d0a6f543 	ldbu	r2,-25643(gp)
 4002ab4:	11003fcc 	andi	r4,r2,255
			devtable[hid_device.addr].epinfo[1].MaxPktSize);
 4002ab8:	d0a6f543 	ldbu	r2,-25643(gp)
 4002abc:	10c03fcc 	andi	r3,r2,255
 4002ac0:	008100b4 	movhi	r2,1026
 4002ac4:	10a49c04 	addi	r2,r2,-28048
 4002ac8:	180690fa 	slli	r3,r3,3
 4002acc:	10c5883a 	add	r2,r2,r3
 4002ad0:	10800017 	ldw	r2,0(r2)
 4002ad4:	10800204 	addi	r2,r2,8
 4002ad8:	1080008b 	ldhu	r2,2(r2)
}
/* poll boot keyboard */
BYTE kbdPoll(BOOT_KBD_REPORT* buf) {
	BYTE rcode;
	MAXreg_wr( rPERADDR, hid_device.addr);    //set peripheral address
	rcode = XferInTransfer(hid_device.addr, 1, 8, (BYTE*) buf,
 4002adc:	10803fcc 	andi	r2,r2,255
 4002ae0:	d8800015 	stw	r2,0(sp)
 4002ae4:	e1ffff17 	ldw	r7,-4(fp)
 4002ae8:	01800204 	movi	r6,8
 4002aec:	01400044 	movi	r5,1
 4002af0:	400375c0 	call	400375c <XferInTransfer>
 4002af4:	e0bffe05 	stb	r2,-8(fp)
			devtable[hid_device.addr].epinfo[1].MaxPktSize);
	return (rcode);
 4002af8:	e0bffe03 	ldbu	r2,-8(fp)
}
 4002afc:	e037883a 	mov	sp,fp
 4002b00:	dfc00117 	ldw	ra,4(sp)
 4002b04:	df000017 	ldw	fp,0(sp)
 4002b08:	dec00204 	addi	sp,sp,8
 4002b0c:	f800283a 	ret

04002b10 <HIDMEventHandler>:
BOOL HIDMEventHandler(BYTE address, BYTE event, void *data, DWORD size) {
 4002b10:	defffb04 	addi	sp,sp,-20
 4002b14:	df000415 	stw	fp,16(sp)
 4002b18:	df000404 	addi	fp,sp,16
 4002b1c:	2007883a 	mov	r3,r4
 4002b20:	2805883a 	mov	r2,r5
 4002b24:	e1bffe15 	stw	r6,-8(fp)
 4002b28:	e1ffff15 	stw	r7,-4(fp)
 4002b2c:	e0fffc05 	stb	r3,-16(fp)
 4002b30:	e0bffd05 	stb	r2,-12(fp)
	return (FALSE);
 4002b34:	0005883a 	mov	r2,zero
}
 4002b38:	e037883a 	mov	sp,fp
 4002b3c:	df000017 	ldw	fp,0(sp)
 4002b40:	dec00104 	addi	sp,sp,4
 4002b44:	f800283a 	ret

04002b48 <HIDKEventHandler>:
BOOL HIDKEventHandler(BYTE address, BYTE event, void *data, DWORD size) {
 4002b48:	defffb04 	addi	sp,sp,-20
 4002b4c:	df000415 	stw	fp,16(sp)
 4002b50:	df000404 	addi	fp,sp,16
 4002b54:	2007883a 	mov	r3,r4
 4002b58:	2805883a 	mov	r2,r5
 4002b5c:	e1bffe15 	stw	r6,-8(fp)
 4002b60:	e1ffff15 	stw	r7,-4(fp)
 4002b64:	e0fffc05 	stb	r3,-16(fp)
 4002b68:	e0bffd05 	stb	r2,-12(fp)
	return (FALSE);
 4002b6c:	0005883a 	mov	r2,zero
}
 4002b70:	e037883a 	mov	sp,fp
 4002b74:	df000017 	ldw	fp,0(sp)
 4002b78:	dec00104 	addi	sp,sp,4
 4002b7c:	f800283a 	ret

04002b80 <SPI_init>:
//variables and data structures
//External variables
extern BYTE usb_task_state;

/* Functions    */
void SPI_init(BYTE sync_mode, BYTE bus_mode, BYTE smp_phase) {
 4002b80:	defffc04 	addi	sp,sp,-16
 4002b84:	df000315 	stw	fp,12(sp)
 4002b88:	df000304 	addi	fp,sp,12
 4002b8c:	2807883a 	mov	r3,r5
 4002b90:	3005883a 	mov	r2,r6
 4002b94:	e13ffd05 	stb	r4,-12(fp)
 4002b98:	e0fffe05 	stb	r3,-8(fp)
 4002b9c:	e0bfff05 	stb	r2,-4(fp)
	//Don't need to initialize SPI port, already ready to go with BSP
}
 4002ba0:	0001883a 	nop
 4002ba4:	e037883a 	mov	sp,fp
 4002ba8:	df000017 	ldw	fp,0(sp)
 4002bac:	dec00104 	addi	sp,sp,4
 4002bb0:	f800283a 	ret

04002bb4 <SPI_wr>:

//writes single byte to MAX3421E via SPI, simultaneously reads status register and returns it
BYTE SPI_wr(BYTE data) {
 4002bb4:	defffe04 	addi	sp,sp,-8
 4002bb8:	df000115 	stw	fp,4(sp)
 4002bbc:	df000104 	addi	fp,sp,4
 4002bc0:	2005883a 	mov	r2,r4
 4002bc4:	e0bfff05 	stb	r2,-4(fp)
	//This function is never used by the code, so you do not need to fill it in
}
 4002bc8:	0001883a 	nop
 4002bcc:	e037883a 	mov	sp,fp
 4002bd0:	df000017 	ldw	fp,0(sp)
 4002bd4:	dec00104 	addi	sp,sp,4
 4002bd8:	f800283a 	ret

04002bdc <MAXreg_wr>:
//writes register to MAX3421E via SPI
void MAXreg_wr(BYTE reg, BYTE val) {
 4002bdc:	defff704 	addi	sp,sp,-36
 4002be0:	dfc00815 	stw	ra,32(sp)
 4002be4:	df000715 	stw	fp,28(sp)
 4002be8:	df000704 	addi	fp,sp,28
 4002bec:	2007883a 	mov	r3,r4
 4002bf0:	2805883a 	mov	r2,r5
 4002bf4:	e0fffe05 	stb	r3,-8(fp)
 4002bf8:	e0bfff05 	stb	r2,-4(fp)
	//write val via SPI
	//read return code from SPI peripheral (see Intel documentation) 
	//if return code < 0 print an error
	//deselect MAX3421E (may not be necessary if you are using SPI peripheral)
	alt_u8 wdata[2];
	wdata[0] = reg + 2;
 4002bfc:	e0bffe03 	ldbu	r2,-8(fp)
 4002c00:	10800084 	addi	r2,r2,2
 4002c04:	e0bffd05 	stb	r2,-12(fp)
	wdata[1] = val;
 4002c08:	e0bfff03 	ldbu	r2,-4(fp)
 4002c0c:	e0bffd45 	stb	r2,-11(fp)
	int code = alt_avalon_spi_command(SPI_BASE, 0, 2, wdata, 0, NULL, 0);
 4002c10:	e0bffd04 	addi	r2,fp,-12
 4002c14:	d8000215 	stw	zero,8(sp)
 4002c18:	d8000115 	stw	zero,4(sp)
 4002c1c:	d8000015 	stw	zero,0(sp)
 4002c20:	100f883a 	mov	r7,r2
 4002c24:	01800084 	movi	r6,2
 4002c28:	000b883a 	mov	r5,zero
 4002c2c:	01020034 	movhi	r4,2048
 4002c30:	21042804 	addi	r4,r4,4256
 4002c34:	4012d640 	call	4012d64 <alt_avalon_spi_command>
 4002c38:	e0bffc15 	stw	r2,-16(fp)
	if (code < 0)
 4002c3c:	e0bffc17 	ldw	r2,-16(fp)
 4002c40:	1000030e 	bge	r2,zero,4002c50 <MAXreg_wr+0x74>
		printf("Reg Write Error!");
 4002c44:	01010074 	movhi	r4,1025
 4002c48:	2110dc04 	addi	r4,r4,17264
 4002c4c:	40045040 	call	4004504 <printf>
}
 4002c50:	0001883a 	nop
 4002c54:	e037883a 	mov	sp,fp
 4002c58:	dfc00117 	ldw	ra,4(sp)
 4002c5c:	df000017 	ldw	fp,0(sp)
 4002c60:	dec00204 	addi	sp,sp,8
 4002c64:	f800283a 	ret

04002c68 <MAXbytes_wr>:
//multiple-byte write
//returns a pointer to a memory position after last written
BYTE* MAXbytes_wr(BYTE reg, BYTE nbytes, BYTE* data) {
 4002c68:	defff304 	addi	sp,sp,-52
 4002c6c:	dfc00c15 	stw	ra,48(sp)
 4002c70:	df000b15 	stw	fp,44(sp)
 4002c74:	dc000a15 	stw	r16,40(sp)
 4002c78:	df000b04 	addi	fp,sp,44
 4002c7c:	201b883a 	mov	r13,r4
 4002c80:	2809883a 	mov	r4,r5
 4002c84:	e1bffe15 	stw	r6,-8(fp)
 4002c88:	e37ffc05 	stb	r13,-16(fp)
 4002c8c:	e13ffd05 	stb	r4,-12(fp)
 4002c90:	d809883a 	mov	r4,sp
 4002c94:	2021883a 	mov	r16,r4
	//write data[n] via SPI, where n goes from 0 to nbytes-1
	//read return code from SPI peripheral (see Intel documentation) 
	//if return code < 0  print an error
	//deselect MAX3421E (may not be necessary if you are using SPI peripheral)
	//return (data + nbytes);
	alt_u8 wdata[1 + nbytes];
 4002c98:	e13ffd03 	ldbu	r4,-12(fp)
 4002c9c:	21000044 	addi	r4,r4,1
 4002ca0:	217fffc4 	addi	r5,r4,-1
 4002ca4:	e17ff915 	stw	r5,-28(fp)
 4002ca8:	200b883a 	mov	r5,r4
 4002cac:	2817883a 	mov	r11,r5
 4002cb0:	0019883a 	mov	r12,zero
 4002cb4:	580ad77a 	srli	r5,r11,29
 4002cb8:	601090fa 	slli	r8,r12,3
 4002cbc:	2a10b03a 	or	r8,r5,r8
 4002cc0:	580e90fa 	slli	r7,r11,3
 4002cc4:	200b883a 	mov	r5,r4
 4002cc8:	2813883a 	mov	r9,r5
 4002ccc:	0015883a 	mov	r10,zero
 4002cd0:	480ad77a 	srli	r5,r9,29
 4002cd4:	500690fa 	slli	r3,r10,3
 4002cd8:	28c6b03a 	or	r3,r5,r3
 4002cdc:	480490fa 	slli	r2,r9,3
 4002ce0:	2005883a 	mov	r2,r4
 4002ce4:	108000c4 	addi	r2,r2,3
 4002ce8:	1004d0ba 	srli	r2,r2,2
 4002cec:	1085883a 	add	r2,r2,r2
 4002cf0:	1085883a 	add	r2,r2,r2
 4002cf4:	d8b7c83a 	sub	sp,sp,r2
 4002cf8:	d8800304 	addi	r2,sp,12
 4002cfc:	1005883a 	mov	r2,r2
 4002d00:	e0bffa15 	stw	r2,-24(fp)
	wdata[0] = reg + 2;
 4002d04:	e0bffc03 	ldbu	r2,-16(fp)
 4002d08:	10800084 	addi	r2,r2,2
 4002d0c:	1007883a 	mov	r3,r2
 4002d10:	e0bffa17 	ldw	r2,-24(fp)
 4002d14:	10c00005 	stb	r3,0(r2)
	for (int i = 0; i < nbytes; i++)
 4002d18:	e03ff815 	stw	zero,-32(fp)
 4002d1c:	00000c06 	br	4002d50 <MAXbytes_wr+0xe8>
		wdata[1 + i] = data[i];
 4002d20:	e0bff817 	ldw	r2,-32(fp)
 4002d24:	10800044 	addi	r2,r2,1
 4002d28:	e0fff817 	ldw	r3,-32(fp)
 4002d2c:	e13ffe17 	ldw	r4,-8(fp)
 4002d30:	20c7883a 	add	r3,r4,r3
 4002d34:	18c00003 	ldbu	r3,0(r3)
 4002d38:	e13ffa17 	ldw	r4,-24(fp)
 4002d3c:	2085883a 	add	r2,r4,r2
 4002d40:	10c00005 	stb	r3,0(r2)
	//if return code < 0  print an error
	//deselect MAX3421E (may not be necessary if you are using SPI peripheral)
	//return (data + nbytes);
	alt_u8 wdata[1 + nbytes];
	wdata[0] = reg + 2;
	for (int i = 0; i < nbytes; i++)
 4002d44:	e0bff817 	ldw	r2,-32(fp)
 4002d48:	10800044 	addi	r2,r2,1
 4002d4c:	e0bff815 	stw	r2,-32(fp)
 4002d50:	e0bffd03 	ldbu	r2,-12(fp)
 4002d54:	e0fff817 	ldw	r3,-32(fp)
 4002d58:	18bff116 	blt	r3,r2,4002d20 <__alt_data_end+0xfc002d20>
		wdata[1 + i] = data[i];
	int code = alt_avalon_spi_command(SPI_BASE, 0, 1 + nbytes, wdata, 0, NULL, 0);
 4002d5c:	e0bffd03 	ldbu	r2,-12(fp)
 4002d60:	10800044 	addi	r2,r2,1
 4002d64:	1007883a 	mov	r3,r2
 4002d68:	e0bffa17 	ldw	r2,-24(fp)
 4002d6c:	d8000215 	stw	zero,8(sp)
 4002d70:	d8000115 	stw	zero,4(sp)
 4002d74:	d8000015 	stw	zero,0(sp)
 4002d78:	100f883a 	mov	r7,r2
 4002d7c:	180d883a 	mov	r6,r3
 4002d80:	000b883a 	mov	r5,zero
 4002d84:	01020034 	movhi	r4,2048
 4002d88:	21042804 	addi	r4,r4,4256
 4002d8c:	4012d640 	call	4012d64 <alt_avalon_spi_command>
 4002d90:	e0bffb15 	stw	r2,-20(fp)
	if (code < 0)
 4002d94:	e0bffb17 	ldw	r2,-20(fp)
 4002d98:	1000030e 	bge	r2,zero,4002da8 <MAXbytes_wr+0x140>
		printf("Byte Write Error!");
 4002d9c:	01010074 	movhi	r4,1025
 4002da0:	2110e104 	addi	r4,r4,17284
 4002da4:	40045040 	call	4004504 <printf>
	return data + nbytes;
 4002da8:	e0bffd03 	ldbu	r2,-12(fp)
 4002dac:	e0fffe17 	ldw	r3,-8(fp)
 4002db0:	1885883a 	add	r2,r3,r2
 4002db4:	8037883a 	mov	sp,r16
}
 4002db8:	e6ffff04 	addi	sp,fp,-4
 4002dbc:	dfc00217 	ldw	ra,8(sp)
 4002dc0:	df000117 	ldw	fp,4(sp)
 4002dc4:	dc000017 	ldw	r16,0(sp)
 4002dc8:	dec00304 	addi	sp,sp,12
 4002dcc:	f800283a 	ret

04002dd0 <MAXreg_rd>:

//reads register from MAX3421E via SPI
BYTE MAXreg_rd(BYTE reg) {
 4002dd0:	defff804 	addi	sp,sp,-32
 4002dd4:	dfc00715 	stw	ra,28(sp)
 4002dd8:	df000615 	stw	fp,24(sp)
 4002ddc:	df000604 	addi	fp,sp,24
 4002de0:	2005883a 	mov	r2,r4
 4002de4:	e0bfff05 	stb	r2,-4(fp)
	//read return code from SPI peripheral (see Intel documentation)
	//if return code < 0 print an error
	//deselect MAX3421E (may not be necessary if you are using SPI peripheral)
	//return val
	alt_u8 wdata[1];
	wdata[0] = reg;
 4002de8:	e0bfff03 	ldbu	r2,-4(fp)
 4002dec:	e0bffe05 	stb	r2,-8(fp)
	alt_u8 rdata[1];
	int code = alt_avalon_spi_command(SPI_BASE, 0, 1, wdata, 1, rdata, 0);
 4002df0:	e0fffe04 	addi	r3,fp,-8
 4002df4:	d8000215 	stw	zero,8(sp)
 4002df8:	e0bffe44 	addi	r2,fp,-7
 4002dfc:	d8800115 	stw	r2,4(sp)
 4002e00:	00800044 	movi	r2,1
 4002e04:	d8800015 	stw	r2,0(sp)
 4002e08:	180f883a 	mov	r7,r3
 4002e0c:	01800044 	movi	r6,1
 4002e10:	000b883a 	mov	r5,zero
 4002e14:	01020034 	movhi	r4,2048
 4002e18:	21042804 	addi	r4,r4,4256
 4002e1c:	4012d640 	call	4012d64 <alt_avalon_spi_command>
 4002e20:	e0bffd15 	stw	r2,-12(fp)
	if (code < 0)
 4002e24:	e0bffd17 	ldw	r2,-12(fp)
 4002e28:	1000030e 	bge	r2,zero,4002e38 <MAXreg_rd+0x68>
		printf("Reg Read Error!");
 4002e2c:	01010074 	movhi	r4,1025
 4002e30:	2110e604 	addi	r4,r4,17304
 4002e34:	40045040 	call	4004504 <printf>
	return rdata[0];
 4002e38:	e0bffe43 	ldbu	r2,-7(fp)
}
 4002e3c:	e037883a 	mov	sp,fp
 4002e40:	dfc00117 	ldw	ra,4(sp)
 4002e44:	df000017 	ldw	fp,0(sp)
 4002e48:	dec00204 	addi	sp,sp,8
 4002e4c:	f800283a 	ret

04002e50 <MAXbytes_rd>:
//multiple-byte write
//returns a pointer to a memory position after last written
BYTE* MAXbytes_rd(BYTE reg, BYTE nbytes, BYTE* data) {
 4002e50:	defff604 	addi	sp,sp,-40
 4002e54:	dfc00915 	stw	ra,36(sp)
 4002e58:	df000815 	stw	fp,32(sp)
 4002e5c:	df000804 	addi	fp,sp,32
 4002e60:	2007883a 	mov	r3,r4
 4002e64:	2805883a 	mov	r2,r5
 4002e68:	e1bfff15 	stw	r6,-4(fp)
 4002e6c:	e0fffd05 	stb	r3,-12(fp)
 4002e70:	e0bffe05 	stb	r2,-8(fp)
	//read return code from SPI peripheral (see Intel documentation)
	//if return code < 0 print an error
	//deselect MAX3421E (may not be necessary if you are using SPI peripheral)
	//return (data + nbytes);
	alt_u8 wdata[1];
	wdata[0] = reg;
 4002e74:	e0bffd03 	ldbu	r2,-12(fp)
 4002e78:	e0bffc05 	stb	r2,-16(fp)
	int code = alt_avalon_spi_command(SPI_BASE, 0, 1, wdata, nbytes, data, 0);
 4002e7c:	e0bffe03 	ldbu	r2,-8(fp)
 4002e80:	e13ffc04 	addi	r4,fp,-16
 4002e84:	d8000215 	stw	zero,8(sp)
 4002e88:	e0ffff17 	ldw	r3,-4(fp)
 4002e8c:	d8c00115 	stw	r3,4(sp)
 4002e90:	d8800015 	stw	r2,0(sp)
 4002e94:	200f883a 	mov	r7,r4
 4002e98:	01800044 	movi	r6,1
 4002e9c:	000b883a 	mov	r5,zero
 4002ea0:	01020034 	movhi	r4,2048
 4002ea4:	21042804 	addi	r4,r4,4256
 4002ea8:	4012d640 	call	4012d64 <alt_avalon_spi_command>
 4002eac:	e0bffb15 	stw	r2,-20(fp)
	if (code < 0)
 4002eb0:	e0bffb17 	ldw	r2,-20(fp)
 4002eb4:	1000030e 	bge	r2,zero,4002ec4 <MAXbytes_rd+0x74>
		printf("Byte Read Error!");
 4002eb8:	01010074 	movhi	r4,1025
 4002ebc:	2110ea04 	addi	r4,r4,17320
 4002ec0:	40045040 	call	4004504 <printf>
	return data + nbytes;
 4002ec4:	e0bffe03 	ldbu	r2,-8(fp)
 4002ec8:	e0ffff17 	ldw	r3,-4(fp)
 4002ecc:	1885883a 	add	r2,r3,r2
}
 4002ed0:	e037883a 	mov	sp,fp
 4002ed4:	dfc00117 	ldw	ra,4(sp)
 4002ed8:	df000017 	ldw	fp,0(sp)
 4002edc:	dec00204 	addi	sp,sp,8
 4002ee0:	f800283a 	ret

04002ee4 <MAX3421E_reset>:
/* reset MAX3421E using chip reset bit. SPI configuration is not affected   */
void MAX3421E_reset(void) {
 4002ee4:	defffd04 	addi	sp,sp,-12
 4002ee8:	dfc00215 	stw	ra,8(sp)
 4002eec:	df000115 	stw	fp,4(sp)
 4002ef0:	df000104 	addi	fp,sp,4
	//hardware reset, then software reset
	IOWR_ALTERA_AVALON_PIO_DATA(USB_RST_BASE, 0);
 4002ef4:	0007883a 	mov	r3,zero
 4002ef8:	00820034 	movhi	r2,2048
 4002efc:	10846004 	addi	r2,r2,4480
 4002f00:	10c00035 	stwio	r3,0(r2)
	usleep(1000000);
 4002f04:	010003f4 	movhi	r4,15
 4002f08:	21109004 	addi	r4,r4,16960
 4002f0c:	40120bc0 	call	40120bc <usleep>
	IOWR_ALTERA_AVALON_PIO_DATA(USB_RST_BASE, 1);
 4002f10:	00c00044 	movi	r3,1
 4002f14:	00820034 	movhi	r2,2048
 4002f18:	10846004 	addi	r2,r2,4480
 4002f1c:	10c00035 	stwio	r3,0(r2)
	BYTE tmp = 0;
 4002f20:	e03fff05 	stb	zero,-4(fp)
	MAXreg_wr( rUSBCTL, bmCHIPRES);      //Chip reset. This stops the oscillator
 4002f24:	01400804 	movi	r5,32
 4002f28:	01001e04 	movi	r4,120
 4002f2c:	4002bdc0 	call	4002bdc <MAXreg_wr>
	MAXreg_wr( rUSBCTL, 0x00);                          //Remove the reset
 4002f30:	000b883a 	mov	r5,zero
 4002f34:	01001e04 	movi	r4,120
 4002f38:	4002bdc0 	call	4002bdc <MAXreg_wr>
	while (!(MAXreg_rd( rUSBIRQ) & bmOSCOKIRQ)) { //wait until the PLL stabilizes
 4002f3c:	00000806 	br	4002f60 <MAX3421E_reset+0x7c>
		tmp++;                                      //timeout after 256 attempts
 4002f40:	e0bfff03 	ldbu	r2,-4(fp)
 4002f44:	10800044 	addi	r2,r2,1
 4002f48:	e0bfff05 	stb	r2,-4(fp)
		if (tmp == 0) {
 4002f4c:	e0bfff03 	ldbu	r2,-4(fp)
 4002f50:	1000031e 	bne	r2,zero,4002f60 <MAX3421E_reset+0x7c>
			printf("reset timeout!");
 4002f54:	01010074 	movhi	r4,1025
 4002f58:	2110ef04 	addi	r4,r4,17340
 4002f5c:	40045040 	call	4004504 <printf>
	usleep(1000000);
	IOWR_ALTERA_AVALON_PIO_DATA(USB_RST_BASE, 1);
	BYTE tmp = 0;
	MAXreg_wr( rUSBCTL, bmCHIPRES);      //Chip reset. This stops the oscillator
	MAXreg_wr( rUSBCTL, 0x00);                          //Remove the reset
	while (!(MAXreg_rd( rUSBIRQ) & bmOSCOKIRQ)) { //wait until the PLL stabilizes
 4002f60:	01001a04 	movi	r4,104
 4002f64:	4002dd00 	call	4002dd0 <MAXreg_rd>
 4002f68:	10803fcc 	andi	r2,r2,255
 4002f6c:	1080004c 	andi	r2,r2,1
 4002f70:	103ff326 	beq	r2,zero,4002f40 <__alt_data_end+0xfc002f40>
		tmp++;                                      //timeout after 256 attempts
		if (tmp == 0) {
			printf("reset timeout!");
		}
	}
}
 4002f74:	0001883a 	nop
 4002f78:	e037883a 	mov	sp,fp
 4002f7c:	dfc00117 	ldw	ra,4(sp)
 4002f80:	df000017 	ldw	fp,0(sp)
 4002f84:	dec00204 	addi	sp,sp,8
 4002f88:	f800283a 	ret

04002f8c <Vbus_power>:
/* turn USB power on/off                                                */
/* ON pin of VBUS switch (MAX4793 or similar) is connected to GPOUT7    */
/* OVERLOAD pin of Vbus switch is connected to GPIN7                    */
/* OVERLOAD state low. NO OVERLOAD or VBUS OFF state high.              */
BOOL Vbus_power(BOOL action) {
 4002f8c:	defffe04 	addi	sp,sp,-8
 4002f90:	df000115 	stw	fp,4(sp)
 4002f94:	df000104 	addi	fp,sp,4
 4002f98:	e13fff15 	stw	r4,-4(fp)
	// power on/off successful
	return (1);
 4002f9c:	00800044 	movi	r2,1
}
 4002fa0:	e037883a 	mov	sp,fp
 4002fa4:	df000017 	ldw	fp,0(sp)
 4002fa8:	dec00104 	addi	sp,sp,4
 4002fac:	f800283a 	ret

04002fb0 <MAX_busprobe>:

/* probe bus to determine device presense and speed */
void MAX_busprobe(void) {
 4002fb0:	defffd04 	addi	sp,sp,-12
 4002fb4:	dfc00215 	stw	ra,8(sp)
 4002fb8:	df000115 	stw	fp,4(sp)
 4002fbc:	df000104 	addi	fp,sp,4
	BYTE bus_sample;

//  MAXreg_wr(rHCTL,bmSAMPLEBUS);
	bus_sample = MAXreg_rd( rHRSL);            //Get J,K status
 4002fc0:	01003e04 	movi	r4,248
 4002fc4:	4002dd00 	call	4002dd0 <MAXreg_rd>
 4002fc8:	e0bfff05 	stb	r2,-4(fp)
	bus_sample &= ( bmJSTATUS | bmKSTATUS);      //zero the rest of the byte
 4002fcc:	e0ffff03 	ldbu	r3,-4(fp)
 4002fd0:	00bff004 	movi	r2,-64
 4002fd4:	1884703a 	and	r2,r3,r2
 4002fd8:	e0bfff05 	stb	r2,-4(fp)

	switch (bus_sample) {                   //start full-speed or low-speed host
 4002fdc:	e0bfff03 	ldbu	r2,-4(fp)
 4002fe0:	10c01020 	cmpeqi	r3,r2,64
 4002fe4:	1800221e 	bne	r3,zero,4003070 <MAX_busprobe+0xc0>
 4002fe8:	10c01048 	cmpgei	r3,r2,65
 4002fec:	1800021e 	bne	r3,zero,4002ff8 <MAX_busprobe+0x48>
 4002ff0:	10003b26 	beq	r2,zero,40030e0 <MAX_busprobe+0x130>
			MAXreg_wr( rMODE, MODE_FS_HOST); //start full-speed host
			usb_task_state = ( USB_DETACHED_SUBSTATE_WAIT_FOR_DEVICE);
		}
		break;
	} //end switch( bus_sample )
}
 4002ff4:	00004a06 	br	4003120 <MAX_busprobe+0x170>

//  MAXreg_wr(rHCTL,bmSAMPLEBUS);
	bus_sample = MAXreg_rd( rHRSL);            //Get J,K status
	bus_sample &= ( bmJSTATUS | bmKSTATUS);      //zero the rest of the byte

	switch (bus_sample) {                   //start full-speed or low-speed host
 4002ff8:	10c02020 	cmpeqi	r3,r2,128
 4002ffc:	1800031e 	bne	r3,zero,400300c <MAX_busprobe+0x5c>
 4003000:	10803020 	cmpeqi	r2,r2,192
 4003004:	1000331e 	bne	r2,zero,40030d4 <MAX_busprobe+0x124>
			MAXreg_wr( rMODE, MODE_FS_HOST); //start full-speed host
			usb_task_state = ( USB_DETACHED_SUBSTATE_WAIT_FOR_DEVICE);
		}
		break;
	} //end switch( bus_sample )
}
 4003008:	00004506 	br	4003120 <MAX_busprobe+0x170>
	bus_sample &= ( bmJSTATUS | bmKSTATUS);      //zero the rest of the byte

	switch (bus_sample) {                   //start full-speed or low-speed host
	case ( bmJSTATUS):
		/*kludgy*/
		if (usb_task_state != USB_ATTACHED_SUBSTATE_WAIT_RESET_COMPLETE) { //bus reset causes connection detect interrupt
 400300c:	d0a00d03 	ldbu	r2,-32716(gp)
 4003010:	10803fcc 	andi	r2,r2,255
 4003014:	108004e0 	cmpeqi	r2,r2,19
 4003018:	10003e1e 	bne	r2,zero,4003114 <MAX_busprobe+0x164>
			if (!(MAXreg_rd( rMODE) & bmLOWSPEED)) {
 400301c:	01003604 	movi	r4,216
 4003020:	4002dd00 	call	4002dd0 <MAXreg_rd>
 4003024:	10803fcc 	andi	r2,r2,255
 4003028:	1080008c 	andi	r2,r2,2
 400302c:	1000071e 	bne	r2,zero,400304c <MAX_busprobe+0x9c>
				MAXreg_wr( rMODE, MODE_FS_HOST);         //start full-speed host
 4003030:	01403244 	movi	r5,201
 4003034:	01003604 	movi	r4,216
 4003038:	4002bdc0 	call	4002bdc <MAXreg_wr>
				printf("Starting in full speed\n");
 400303c:	01010074 	movhi	r4,1025
 4003040:	2110f304 	addi	r4,r4,17356
 4003044:	40046200 	call	4004620 <puts>
 4003048:	00000606 	br	4003064 <MAX_busprobe+0xb4>
			} else {
				MAXreg_wr( rMODE, MODE_LS_HOST);    //start low-speed host
 400304c:	014032c4 	movi	r5,203
 4003050:	01003604 	movi	r4,216
 4003054:	4002bdc0 	call	4002bdc <MAXreg_wr>
				printf("Starting in low speed\n");
 4003058:	01010074 	movhi	r4,1025
 400305c:	2110f904 	addi	r4,r4,17380
 4003060:	40046200 	call	4004620 <puts>
			}
			usb_task_state = ( USB_STATE_ATTACHED); //signal usb state machine to start attachment sequence
 4003064:	00800404 	movi	r2,16
 4003068:	d0a00d05 	stb	r2,-32716(gp)
		}
		break;
 400306c:	00002906 	br	4003114 <MAX_busprobe+0x164>
	case ( bmKSTATUS):
		if (usb_task_state != USB_ATTACHED_SUBSTATE_WAIT_RESET_COMPLETE) { //bus reset causes connection detect interrupt
 4003070:	d0a00d03 	ldbu	r2,-32716(gp)
 4003074:	10803fcc 	andi	r2,r2,255
 4003078:	108004e0 	cmpeqi	r2,r2,19
 400307c:	1000271e 	bne	r2,zero,400311c <MAX_busprobe+0x16c>
			if (!(MAXreg_rd( rMODE) & bmLOWSPEED)) {
 4003080:	01003604 	movi	r4,216
 4003084:	4002dd00 	call	4002dd0 <MAXreg_rd>
 4003088:	10803fcc 	andi	r2,r2,255
 400308c:	1080008c 	andi	r2,r2,2
 4003090:	1000071e 	bne	r2,zero,40030b0 <MAX_busprobe+0x100>
				MAXreg_wr( rMODE, MODE_LS_HOST);   //start low-speed host
 4003094:	014032c4 	movi	r5,203
 4003098:	01003604 	movi	r4,216
 400309c:	4002bdc0 	call	4002bdc <MAXreg_wr>
				printf("Starting in low speed\n");
 40030a0:	01010074 	movhi	r4,1025
 40030a4:	2110f904 	addi	r4,r4,17380
 40030a8:	40046200 	call	4004620 <puts>
 40030ac:	00000606 	br	40030c8 <MAX_busprobe+0x118>
			} else {
				MAXreg_wr( rMODE, MODE_FS_HOST);         //start full-speed host
 40030b0:	01403244 	movi	r5,201
 40030b4:	01003604 	movi	r4,216
 40030b8:	4002bdc0 	call	4002bdc <MAXreg_wr>
				printf("Starting in full speed\n");
 40030bc:	01010074 	movhi	r4,1025
 40030c0:	2110f304 	addi	r4,r4,17356
 40030c4:	40046200 	call	4004620 <puts>
			}
			usb_task_state = ( USB_STATE_ATTACHED); //signal usb state machine to start attachment sequence
 40030c8:	00800404 	movi	r2,16
 40030cc:	d0a00d05 	stb	r2,-32716(gp)
		}
		break;
 40030d0:	00001206 	br	400311c <MAX_busprobe+0x16c>
	case ( bmSE1):              //illegal state
		usb_task_state = ( USB_DETACHED_SUBSTATE_ILLEGAL);
 40030d4:	00800104 	movi	r2,4
 40030d8:	d0a00d05 	stb	r2,-32716(gp)
		break;
 40030dc:	00001006 	br	4003120 <MAX_busprobe+0x170>
	case ( bmSE0):              //disconnected state
		if (!((usb_task_state & USB_STATE_MASK) == USB_STATE_DETACHED)) //if we came here from other than detached state
 40030e0:	d0a00d03 	ldbu	r2,-32716(gp)
 40030e4:	10803fcc 	andi	r2,r2,255
 40030e8:	10803c0c 	andi	r2,r2,240
 40030ec:	10000326 	beq	r2,zero,40030fc <MAX_busprobe+0x14c>
			usb_task_state = ( USB_DETACHED_SUBSTATE_INITIALIZE); //clear device data structures
 40030f0:	00800044 	movi	r2,1
 40030f4:	d0a00d05 	stb	r2,-32716(gp)
		else {
			MAXreg_wr( rMODE, MODE_FS_HOST); //start full-speed host
			usb_task_state = ( USB_DETACHED_SUBSTATE_WAIT_FOR_DEVICE);
		}
		break;
 40030f8:	00000906 	br	4003120 <MAX_busprobe+0x170>
		break;
	case ( bmSE0):              //disconnected state
		if (!((usb_task_state & USB_STATE_MASK) == USB_STATE_DETACHED)) //if we came here from other than detached state
			usb_task_state = ( USB_DETACHED_SUBSTATE_INITIALIZE); //clear device data structures
		else {
			MAXreg_wr( rMODE, MODE_FS_HOST); //start full-speed host
 40030fc:	01403244 	movi	r5,201
 4003100:	01003604 	movi	r4,216
 4003104:	4002bdc0 	call	4002bdc <MAXreg_wr>
			usb_task_state = ( USB_DETACHED_SUBSTATE_WAIT_FOR_DEVICE);
 4003108:	008000c4 	movi	r2,3
 400310c:	d0a00d05 	stb	r2,-32716(gp)
		}
		break;
 4003110:	00000306 	br	4003120 <MAX_busprobe+0x170>
				MAXreg_wr( rMODE, MODE_LS_HOST);    //start low-speed host
				printf("Starting in low speed\n");
			}
			usb_task_state = ( USB_STATE_ATTACHED); //signal usb state machine to start attachment sequence
		}
		break;
 4003114:	0001883a 	nop
 4003118:	00000106 	br	4003120 <MAX_busprobe+0x170>
				MAXreg_wr( rMODE, MODE_FS_HOST);         //start full-speed host
				printf("Starting in full speed\n");
			}
			usb_task_state = ( USB_STATE_ATTACHED); //signal usb state machine to start attachment sequence
		}
		break;
 400311c:	0001883a 	nop
			MAXreg_wr( rMODE, MODE_FS_HOST); //start full-speed host
			usb_task_state = ( USB_DETACHED_SUBSTATE_WAIT_FOR_DEVICE);
		}
		break;
	} //end switch( bus_sample )
}
 4003120:	0001883a 	nop
 4003124:	e037883a 	mov	sp,fp
 4003128:	dfc00117 	ldw	ra,4(sp)
 400312c:	df000017 	ldw	fp,0(sp)
 4003130:	dec00204 	addi	sp,sp,8
 4003134:	f800283a 	ret

04003138 <MAX3421E_init>:
/* MAX3421E initialization after power-on   */
void MAX3421E_init(void) {
 4003138:	defffe04 	addi	sp,sp,-8
 400313c:	dfc00115 	stw	ra,4(sp)
 4003140:	df000015 	stw	fp,0(sp)
 4003144:	d839883a 	mov	fp,sp
	/* Configure full-duplex SPI, interrupt pulse   */
	MAXreg_wr( rPINCTL, (bmFDUPSPI + bmINTLEVEL + bmGPXB)); //Full-duplex SPI, level interrupt, GPX
 4003148:	01400684 	movi	r5,26
 400314c:	01002204 	movi	r4,136
 4003150:	4002bdc0 	call	4002bdc <MAXreg_wr>
	MAX3421E_reset();                                //stop/start the oscillator
 4003154:	4002ee40 	call	4002ee4 <MAX3421E_reset>
	/* configure power switch   */
	Vbus_power( OFF);                                      //turn Vbus power off
 4003158:	0009883a 	mov	r4,zero
 400315c:	4002f8c0 	call	4002f8c <Vbus_power>
	MAXreg_wr( rGPINIEN, bmGPINIEN7); //enable interrupt on GPIN7 (power switch overload flag)
 4003160:	01402004 	movi	r5,128
 4003164:	01002e04 	movi	r4,184
 4003168:	4002bdc0 	call	4002bdc <MAXreg_wr>
	Vbus_power( ON);
 400316c:	01000044 	movi	r4,1
 4003170:	4002f8c0 	call	4002f8c <Vbus_power>
	/* configure host operation */
	MAXreg_wr( rMODE, bmDPPULLDN | bmDMPULLDN | bmHOST | bmSEPIRQ); // set pull-downs, SOF, Host, Separate GPIN IRQ on GPX
 4003174:	01403444 	movi	r5,209
 4003178:	01003604 	movi	r4,216
 400317c:	4002bdc0 	call	4002bdc <MAXreg_wr>
	//MAXreg_wr( rHIEN, bmFRAMEIE|bmCONDETIE|bmBUSEVENTIE );                      // enable SOF, connection detection, bus event IRQs
	MAXreg_wr( rHIEN, bmCONDETIE);                        //connection detection
 4003180:	01400804 	movi	r5,32
 4003184:	01003404 	movi	r4,208
 4003188:	4002bdc0 	call	4002bdc <MAXreg_wr>
	/* HXFRDNIRQ is checked in Dispatch packet function */
	MAXreg_wr(rHCTL, bmSAMPLEBUS);        // update the JSTATUS and KSTATUS bits
 400318c:	01400104 	movi	r5,4
 4003190:	01003a04 	movi	r4,232
 4003194:	4002bdc0 	call	4002bdc <MAXreg_wr>
	MAX_busprobe();                             //check if anything is connected
 4003198:	4002fb00 	call	4002fb0 <MAX_busprobe>
	MAXreg_wr( rHIRQ, bmCONDETIRQ); //clear connection detect interrupt                 
 400319c:	01400804 	movi	r5,32
 40031a0:	01003204 	movi	r4,200
 40031a4:	4002bdc0 	call	4002bdc <MAXreg_wr>
	MAXreg_wr( rCPUCTL, 0x01);                            //enable interrupt pin
 40031a8:	01400044 	movi	r5,1
 40031ac:	01002004 	movi	r4,128
 40031b0:	4002bdc0 	call	4002bdc <MAXreg_wr>
}
 40031b4:	0001883a 	nop
 40031b8:	e037883a 	mov	sp,fp
 40031bc:	dfc00117 	ldw	ra,4(sp)
 40031c0:	df000017 	ldw	fp,0(sp)
 40031c4:	dec00204 	addi	sp,sp,8
 40031c8:	f800283a 	ret

040031cc <MAX3421E_Task>:

/* MAX3421 state change task and interrupt handler */
void MAX3421E_Task(void) {
 40031cc:	defffe04 	addi	sp,sp,-8
 40031d0:	dfc00115 	stw	ra,4(sp)
 40031d4:	df000015 	stw	fp,0(sp)
 40031d8:	d839883a 	mov	fp,sp
	if ( IORD_ALTERA_AVALON_PIO_DATA(USB_IRQ_BASE) == 0) {
 40031dc:	00820034 	movhi	r2,2048
 40031e0:	10846804 	addi	r2,r2,4512
 40031e4:	10800037 	ldwio	r2,0(r2)
 40031e8:	1000041e 	bne	r2,zero,40031fc <MAX3421E_Task+0x30>
		printf("MAX interrupt\n\r");
 40031ec:	01010074 	movhi	r4,1025
 40031f0:	2110ff04 	addi	r4,r4,17404
 40031f4:	40045040 	call	4004504 <printf>
		MaxIntHandler();
 40031f8:	40032380 	call	4003238 <MaxIntHandler>
	}
	if ( IORD_ALTERA_AVALON_PIO_DATA(USB_GPX_BASE) == 1) {
 40031fc:	00820034 	movhi	r2,2048
 4003200:	10846404 	addi	r2,r2,4496
 4003204:	10800037 	ldwio	r2,0(r2)
 4003208:	10800058 	cmpnei	r2,r2,1
 400320c:	1000041e 	bne	r2,zero,4003220 <MAX3421E_Task+0x54>
		printf("GPX interrupt\n\r");
 4003210:	01010074 	movhi	r4,1025
 4003214:	21110304 	addi	r4,r4,17420
 4003218:	40045040 	call	4004504 <printf>
		MaxGpxHandler();
 400321c:	40033040 	call	4003304 <MaxGpxHandler>
	}
}
 4003220:	0001883a 	nop
 4003224:	e037883a 	mov	sp,fp
 4003228:	dfc00117 	ldw	ra,4(sp)
 400322c:	df000017 	ldw	fp,0(sp)
 4003230:	dec00204 	addi	sp,sp,8
 4003234:	f800283a 	ret

04003238 <MaxIntHandler>:

void MaxIntHandler(void) {
 4003238:	defffd04 	addi	sp,sp,-12
 400323c:	dfc00215 	stw	ra,8(sp)
 4003240:	df000115 	stw	fp,4(sp)
 4003244:	df000104 	addi	fp,sp,4
	BYTE HIRQ;
	BYTE HIRQ_sendback = 0x00;
 4003248:	e03fff05 	stb	zero,-4(fp)
	HIRQ = MAXreg_rd( rHIRQ);                  //determine interrupt source
 400324c:	01003204 	movi	r4,200
 4003250:	4002dd00 	call	4002dd0 <MAXreg_rd>
 4003254:	e0bfff45 	stb	r2,-3(fp)
	printf("IRQ: %x\n", HIRQ);
 4003258:	e0bfff43 	ldbu	r2,-3(fp)
 400325c:	100b883a 	mov	r5,r2
 4003260:	01010074 	movhi	r4,1025
 4003264:	21110704 	addi	r4,r4,17436
 4003268:	40045040 	call	4004504 <printf>
	if (HIRQ & bmFRAMEIRQ) {                   //->1ms SOF interrupt handler
 400326c:	e0bfff43 	ldbu	r2,-3(fp)
 4003270:	1080100c 	andi	r2,r2,64
 4003274:	10000326 	beq	r2,zero,4003284 <MaxIntHandler+0x4c>
		HIRQ_sendback |= bmFRAMEIRQ;
 4003278:	e0bfff03 	ldbu	r2,-4(fp)
 400327c:	10801014 	ori	r2,r2,64
 4003280:	e0bfff05 	stb	r2,-4(fp)
	}                   //end FRAMEIRQ handling

	if (HIRQ & bmCONDETIRQ) {
 4003284:	e0bfff43 	ldbu	r2,-3(fp)
 4003288:	1080080c 	andi	r2,r2,32
 400328c:	10000426 	beq	r2,zero,40032a0 <MaxIntHandler+0x68>
		MAX_busprobe();
 4003290:	4002fb00 	call	4002fb0 <MAX_busprobe>
		HIRQ_sendback |= bmCONDETIRQ;      //set sendback to 1 to clear register
 4003294:	e0bfff03 	ldbu	r2,-4(fp)
 4003298:	10800814 	ori	r2,r2,32
 400329c:	e0bfff05 	stb	r2,-4(fp)
	}
	if (HIRQ & bmSNDBAVIRQ) //if the send buffer is clear (previous transfer completed without issue)
 40032a0:	e0bfff43 	ldbu	r2,-3(fp)
 40032a4:	1080020c 	andi	r2,r2,8
 40032a8:	10000326 	beq	r2,zero,40032b8 <MaxIntHandler+0x80>
	{
		MAXreg_wr(rSNDBC, 0x00);//clear the send buffer (not really necessary, but clears interrupt)
 40032ac:	000b883a 	mov	r5,zero
 40032b0:	01000e04 	movi	r4,56
 40032b4:	4002bdc0 	call	4002bdc <MAXreg_wr>
	}
	if (HIRQ & bmBUSEVENTIRQ) {           //bus event is either reset or suspend
 40032b8:	e0bfff43 	ldbu	r2,-3(fp)
 40032bc:	1080004c 	andi	r2,r2,1
 40032c0:	10000626 	beq	r2,zero,40032dc <MaxIntHandler+0xa4>
		usb_task_state++;                       //advance USB task state machine
 40032c4:	d0a00d03 	ldbu	r2,-32716(gp)
 40032c8:	10800044 	addi	r2,r2,1
 40032cc:	d0a00d05 	stb	r2,-32716(gp)
		HIRQ_sendback |= bmBUSEVENTIRQ;
 40032d0:	e0bfff03 	ldbu	r2,-4(fp)
 40032d4:	10800054 	ori	r2,r2,1
 40032d8:	e0bfff05 	stb	r2,-4(fp)
	}
	/* End HIRQ interrupts handling, clear serviced IRQs    */
	MAXreg_wr( rHIRQ, HIRQ_sendback); //write '1' to CONDETIRQ to ack bus state change
 40032dc:	e0bfff03 	ldbu	r2,-4(fp)
 40032e0:	100b883a 	mov	r5,r2
 40032e4:	01003204 	movi	r4,200
 40032e8:	4002bdc0 	call	4002bdc <MAXreg_wr>
}
 40032ec:	0001883a 	nop
 40032f0:	e037883a 	mov	sp,fp
 40032f4:	dfc00117 	ldw	ra,4(sp)
 40032f8:	df000017 	ldw	fp,0(sp)
 40032fc:	dec00204 	addi	sp,sp,8
 4003300:	f800283a 	ret

04003304 <MaxGpxHandler>:

void MaxGpxHandler(void) {
 4003304:	defffd04 	addi	sp,sp,-12
 4003308:	dfc00215 	stw	ra,8(sp)
 400330c:	df000115 	stw	fp,4(sp)
 4003310:	df000104 	addi	fp,sp,4
	BYTE GPINIRQ;
	GPINIRQ = MAXreg_rd( rGPINIRQ);            //read both IRQ registers
 4003314:	01002c04 	movi	r4,176
 4003318:	4002dd00 	call	4002dd0 <MAXreg_rd>
 400331c:	e0bfff05 	stb	r2,-4(fp)
}
 4003320:	0001883a 	nop
 4003324:	e037883a 	mov	sp,fp
 4003328:	dfc00117 	ldw	ra,4(sp)
 400332c:	df000017 	ldw	fp,0(sp)
 4003330:	dec00204 	addi	sp,sp,8
 4003334:	f800283a 	ret

04003338 <XferCtrlReq>:
/* depending on request. Actual requests are defined as macros                                                                                      */
/* return codes:                */
/* 00       =   success         */
/* 01-0f    =   non-zero HRSLT  */
BYTE XferCtrlReq( BYTE addr, BYTE ep, BYTE bmReqType, BYTE bRequest, BYTE wValLo, BYTE wValHi, WORD wInd, WORD nbytes, BYTE* dataptr )
{
 4003338:	defff104 	addi	sp,sp,-60
 400333c:	dfc00e15 	stw	ra,56(sp)
 4003340:	df000d15 	stw	fp,52(sp)
 4003344:	df000d04 	addi	fp,sp,52
 4003348:	2015883a 	mov	r10,r4
 400334c:	2813883a 	mov	r9,r5
 4003350:	3011883a 	mov	r8,r6
 4003354:	380d883a 	mov	r6,r7
 4003358:	e1400217 	ldw	r5,8(fp)
 400335c:	e1000317 	ldw	r4,12(fp)
 4003360:	e0c00417 	ldw	r3,16(fp)
 4003364:	e0800517 	ldw	r2,20(fp)
 4003368:	e2bff805 	stb	r10,-32(fp)
 400336c:	e27ff905 	stb	r9,-28(fp)
 4003370:	e23ffa05 	stb	r8,-24(fp)
 4003374:	e1bffb05 	stb	r6,-20(fp)
 4003378:	e17ffc05 	stb	r5,-16(fp)
 400337c:	e13ffd05 	stb	r4,-12(fp)
 4003380:	e0fffe0d 	sth	r3,-8(fp)
 4003384:	e0bfff0d 	sth	r2,-4(fp)
 BOOL direction = FALSE;        //request direction, IN or OUT
 4003388:	e03ff415 	stw	zero,-48(fp)
 BYTE datastage = 1; //request data stage present or absent
 400338c:	00800044 	movi	r2,1
 4003390:	e0bff505 	stb	r2,-44(fp)
 BYTE rcode;
 SETUP_PKT setup_pkt;
    if( dataptr == NULL ) {
 4003394:	e0800617 	ldw	r2,24(fp)
 4003398:	1000011e 	bne	r2,zero,40033a0 <XferCtrlReq+0x68>
        datastage = 0;
 400339c:	e03ff505 	stb	zero,-44(fp)
    }
    MAXreg_wr( rPERADDR, addr );                    //set peripheral address
 40033a0:	e0bff803 	ldbu	r2,-32(fp)
 40033a4:	100b883a 	mov	r5,r2
 40033a8:	01003804 	movi	r4,224
 40033ac:	4002bdc0 	call	4002bdc <MAXreg_wr>
    /* fill in setup packet */
    if( bmReqType & 0x80 ) {
 40033b0:	e0bffa03 	ldbu	r2,-24(fp)
 40033b4:	10803fcc 	andi	r2,r2,255
 40033b8:	1080201c 	xori	r2,r2,128
 40033bc:	10bfe004 	addi	r2,r2,-128
 40033c0:	1000020e 	bge	r2,zero,40033cc <XferCtrlReq+0x94>
        direction = TRUE;                   		//determine request direction
 40033c4:	00800044 	movi	r2,1
 40033c8:	e0bff415 	stw	r2,-48(fp)
    }
    /* fill in setup packet */
    setup_pkt.ReqType_u.bmRequestType = bmReqType;
 40033cc:	e0bffa03 	ldbu	r2,-24(fp)
 40033d0:	e0bff585 	stb	r2,-42(fp)
    setup_pkt.bRequest = bRequest;
 40033d4:	e0bffb03 	ldbu	r2,-20(fp)
 40033d8:	e0bff5c5 	stb	r2,-41(fp)
    setup_pkt.wVal_u.wValueLo = wValLo;
 40033dc:	e0bffc03 	ldbu	r2,-16(fp)
 40033e0:	e0bff605 	stb	r2,-40(fp)
    setup_pkt.wVal_u.wValueHi = wValHi;
 40033e4:	e0bffd03 	ldbu	r2,-12(fp)
 40033e8:	e0bff645 	stb	r2,-39(fp)
    setup_pkt.wIndex = wInd;
 40033ec:	e0bffe0b 	ldhu	r2,-8(fp)
 40033f0:	e0bff68d 	sth	r2,-38(fp)
    setup_pkt.wLength = nbytes;
 40033f4:	e0bfff0b 	ldhu	r2,-4(fp)
 40033f8:	e0bff70d 	sth	r2,-36(fp)
    MAXbytes_wr( rSUDFIFO, 8, (BYTE *)&setup_pkt );     //transfer to setup packet FIFO
 40033fc:	e0bff584 	addi	r2,fp,-42
 4003400:	100d883a 	mov	r6,r2
 4003404:	01400204 	movi	r5,8
 4003408:	01000804 	movi	r4,32
 400340c:	4002c680 	call	4002c68 <MAXbytes_wr>
    rcode = XferDispatchPkt( tokSETUP, ep );            //dispatch packet
 4003410:	e0bff903 	ldbu	r2,-28(fp)
 4003414:	100b883a 	mov	r5,r2
 4003418:	01000404 	movi	r4,16
 400341c:	40035e00 	call	40035e0 <XferDispatchPkt>
 4003420:	e0bff545 	stb	r2,-43(fp)
    if( rcode ) {                                       //return HRSLT if not zero
 4003424:	e0bff543 	ldbu	r2,-43(fp)
 4003428:	10000226 	beq	r2,zero,4003434 <XferCtrlReq+0xfc>
        return( rcode );
 400342c:	e0bff543 	ldbu	r2,-43(fp)
 4003430:	00000f06 	br	4003470 <XferCtrlReq+0x138>
    }
    rcode = ctrl_xfers[ datastage ]( addr, ep, nbytes, dataptr, direction );    //call data stage or no data stage transfer
 4003434:	e0bff503 	ldbu	r2,-44(fp)
 4003438:	1085883a 	add	r2,r2,r2
 400343c:	1087883a 	add	r3,r2,r2
 4003440:	d0a00b04 	addi	r2,gp,-32724
 4003444:	1885883a 	add	r2,r3,r2
 4003448:	10800017 	ldw	r2,0(r2)
 400344c:	e13ff803 	ldbu	r4,-32(fp)
 4003450:	e17ff903 	ldbu	r5,-28(fp)
 4003454:	e1bfff0b 	ldhu	r6,-4(fp)
 4003458:	e0fff417 	ldw	r3,-48(fp)
 400345c:	d8c00015 	stw	r3,0(sp)
 4003460:	e1c00617 	ldw	r7,24(fp)
 4003464:	103ee83a 	callr	r2
 4003468:	e0bff545 	stb	r2,-43(fp)
    return( rcode );
 400346c:	e0bff543 	ldbu	r2,-43(fp)
}
 4003470:	e037883a 	mov	sp,fp
 4003474:	dfc00117 	ldw	ra,4(sp)
 4003478:	df000017 	ldw	fp,0(sp)
 400347c:	dec00204 	addi	sp,sp,8
 4003480:	f800283a 	ret

04003484 <XferCtrlData>:
/* Control transfer with data stage */
BYTE XferCtrlData( BYTE addr, BYTE ep, WORD nbytes, BYTE* dataptr, BOOL direction )
{
 4003484:	defff804 	addi	sp,sp,-32
 4003488:	dfc00715 	stw	ra,28(sp)
 400348c:	df000615 	stw	fp,24(sp)
 4003490:	df000604 	addi	fp,sp,24
 4003494:	2807883a 	mov	r3,r5
 4003498:	3005883a 	mov	r2,r6
 400349c:	e1ffff15 	stw	r7,-4(fp)
 40034a0:	e13ffc05 	stb	r4,-16(fp)
 40034a4:	e0fffd05 	stb	r3,-12(fp)
 40034a8:	e0bffe0d 	sth	r2,-8(fp)
  BYTE rcode;

    //MAXreg_wr( rHCTL, bmRCVTOG1 );       //set toggle to DATA1
    if( direction ) {   //IN transfer
 40034ac:	e0800217 	ldw	r2,8(fp)
 40034b0:	10002826 	beq	r2,zero,4003554 <XferCtrlData+0xd0>
        devtable[ addr ].epinfo[ ep ].rcvToggle = bmRCVTOG1;
 40034b4:	e0fffc03 	ldbu	r3,-16(fp)
 40034b8:	008100b4 	movhi	r2,1026
 40034bc:	10a49c04 	addi	r2,r2,-28048
 40034c0:	180690fa 	slli	r3,r3,3
 40034c4:	10c5883a 	add	r2,r2,r3
 40034c8:	10c00017 	ldw	r3,0(r2)
 40034cc:	e0bffd03 	ldbu	r2,-12(fp)
 40034d0:	100490fa 	slli	r2,r2,3
 40034d4:	1885883a 	add	r2,r3,r2
 40034d8:	00c00804 	movi	r3,32
 40034dc:	10c00185 	stb	r3,6(r2)
        rcode = XferInTransfer( addr, ep, nbytes, dataptr, devtable[ addr ].epinfo[ ep ].MaxPktSize );
 40034e0:	e13ffc03 	ldbu	r4,-16(fp)
 40034e4:	e17ffd03 	ldbu	r5,-12(fp)
 40034e8:	e1bffe0b 	ldhu	r6,-8(fp)
 40034ec:	e0fffc03 	ldbu	r3,-16(fp)
 40034f0:	008100b4 	movhi	r2,1026
 40034f4:	10a49c04 	addi	r2,r2,-28048
 40034f8:	180690fa 	slli	r3,r3,3
 40034fc:	10c5883a 	add	r2,r2,r3
 4003500:	10c00017 	ldw	r3,0(r2)
 4003504:	e0bffd03 	ldbu	r2,-12(fp)
 4003508:	100490fa 	slli	r2,r2,3
 400350c:	1885883a 	add	r2,r3,r2
 4003510:	1080008b 	ldhu	r2,2(r2)
 4003514:	10803fcc 	andi	r2,r2,255
 4003518:	d8800015 	stw	r2,0(sp)
 400351c:	e1ffff17 	ldw	r7,-4(fp)
 4003520:	400375c0 	call	400375c <XferInTransfer>
 4003524:	e0bffb05 	stb	r2,-20(fp)
        if( rcode ) {
 4003528:	e0bffb03 	ldbu	r2,-20(fp)
 400352c:	10000226 	beq	r2,zero,4003538 <XferCtrlData+0xb4>
        return( rcode );
 4003530:	e0bffb03 	ldbu	r2,-20(fp)
 4003534:	00000806 	br	4003558 <XferCtrlData+0xd4>
        }
        rcode = XferDispatchPkt( tokOUTHS, ep );
 4003538:	e0bffd03 	ldbu	r2,-12(fp)
 400353c:	100b883a 	mov	r5,r2
 4003540:	01002804 	movi	r4,160
 4003544:	40035e00 	call	40035e0 <XferDispatchPkt>
 4003548:	e0bffb05 	stb	r2,-20(fp)
        return( rcode );
 400354c:	e0bffb03 	ldbu	r2,-20(fp)
 4003550:	00000106 	br	4003558 <XferCtrlData+0xd4>
    }
    else {              //OUT not implemented
        return( 0xff );
 4003554:	00bfffc4 	movi	r2,-1
    }
}
 4003558:	e037883a 	mov	sp,fp
 400355c:	dfc00117 	ldw	ra,4(sp)
 4003560:	df000017 	ldw	fp,0(sp)
 4003564:	dec00204 	addi	sp,sp,8
 4003568:	f800283a 	ret

0400356c <XferCtrlND>:
/* Control transfer with status stage and no data stage */
BYTE XferCtrlND( BYTE addr, BYTE ep, WORD nbytes, BYTE* dataptr, BOOL direction )
{
 400356c:	defff904 	addi	sp,sp,-28
 4003570:	dfc00615 	stw	ra,24(sp)
 4003574:	df000515 	stw	fp,20(sp)
 4003578:	df000504 	addi	fp,sp,20
 400357c:	2807883a 	mov	r3,r5
 4003580:	3005883a 	mov	r2,r6
 4003584:	e1ffff15 	stw	r7,-4(fp)
 4003588:	e13ffc05 	stb	r4,-16(fp)
 400358c:	e0fffd05 	stb	r3,-12(fp)
 4003590:	e0bffe0d 	sth	r2,-8(fp)
  BYTE rcode;
    if( direction ) { //GET
 4003594:	e0800217 	ldw	r2,8(fp)
 4003598:	10000626 	beq	r2,zero,40035b4 <XferCtrlND+0x48>
        rcode = XferDispatchPkt( tokOUTHS, ep );
 400359c:	e0bffd03 	ldbu	r2,-12(fp)
 40035a0:	100b883a 	mov	r5,r2
 40035a4:	01002804 	movi	r4,160
 40035a8:	40035e00 	call	40035e0 <XferDispatchPkt>
 40035ac:	e0bffb05 	stb	r2,-20(fp)
 40035b0:	00000506 	br	40035c8 <XferCtrlND+0x5c>
    }
    else {
        rcode = XferDispatchPkt( tokINHS, ep );
 40035b4:	e0bffd03 	ldbu	r2,-12(fp)
 40035b8:	100b883a 	mov	r5,r2
 40035bc:	01002004 	movi	r4,128
 40035c0:	40035e00 	call	40035e0 <XferDispatchPkt>
 40035c4:	e0bffb05 	stb	r2,-20(fp)
    }
    return( rcode );
 40035c8:	e0bffb03 	ldbu	r2,-20(fp)
}
 40035cc:	e037883a 	mov	sp,fp
 40035d0:	dfc00117 	ldw	ra,4(sp)
 40035d4:	df000017 	ldw	fp,0(sp)
 40035d8:	dec00204 	addi	sp,sp,8
 40035dc:	f800283a 	ret

040035e0 <XferDispatchPkt>:
/* Result code: 0 success, nonzero = error condition                                                */
/* If NAK, tries to re-send up to USB_NAK_LIMIT times                                               */
/* If bus timeout, re-sends up to USB_RETRY_LIMIT times                                             */
/* return codes 0x00-0x0f are HRSLT( 0x00 being success ), 0xff means timeout                       */
BYTE XferDispatchPkt( BYTE token, BYTE ep )
{
 40035e0:	defff904 	addi	sp,sp,-28
 40035e4:	dfc00615 	stw	ra,24(sp)
 40035e8:	df000515 	stw	fp,20(sp)
 40035ec:	df000504 	addi	fp,sp,20
 40035f0:	2007883a 	mov	r3,r4
 40035f4:	2805883a 	mov	r2,r5
 40035f8:	e0fffe05 	stb	r3,-8(fp)
 40035fc:	e0bfff05 	stb	r2,-4(fp)
 * alt_nticks() returns the elapsed number of system clock ticks since reset.
 */

static ALT_INLINE alt_u32 ALT_ALWAYS_INLINE alt_nticks (void)
{
  return _alt_nticks;
 4003600:	d0a70a17 	ldw	r2,-25560(gp)
 DWORD timeout = (alt_nticks()*1000)/alt_ticks_per_second() + USB_XFER_TIMEOUT;
 4003604:	0140fa04 	movi	r5,1000
 4003608:	1009883a 	mov	r4,r2
 400360c:	40043840 	call	4004384 <__mulsi3>
 4003610:	1007883a 	mov	r3,r2
 * Obtain the system clock rate in ticks/s. 
 */

static ALT_INLINE alt_u32 ALT_ALWAYS_INLINE alt_ticks_per_second (void)
{
  return _alt_tick_rate;
 4003614:	d0a70917 	ldw	r2,-25564(gp)
 4003618:	100b883a 	mov	r5,r2
 400361c:	1809883a 	mov	r4,r3
 4003620:	40042c80 	call	40042c8 <__udivsi3>
 4003624:	1084e204 	addi	r2,r2,5000
 4003628:	e0bffc15 	stw	r2,-16(fp)
 BYTE tmpdata;
 BYTE rcode;
 char retry_count = 0;
 400362c:	e03ffb45 	stb	zero,-19(fp)
 BYTE nak_count = 0;
 4003630:	e03ffb85 	stb	zero,-18(fp)

    while( 1 ) {
        MAXreg_wr( rHXFR, ( token|ep ));            //launch the transfer
 4003634:	e0fffe03 	ldbu	r3,-8(fp)
 4003638:	e0bfff03 	ldbu	r2,-4(fp)
 400363c:	1884b03a 	or	r2,r3,r2
 4003640:	10803fcc 	andi	r2,r2,255
 4003644:	100b883a 	mov	r5,r2
 4003648:	01003c04 	movi	r4,240
 400364c:	4002bdc0 	call	4002bdc <MAXreg_wr>
        rcode = 0xff;
 4003650:	00bfffc4 	movi	r2,-1
 4003654:	e0bffb05 	stb	r2,-20(fp)
        while( (alt_nticks()*1000)/alt_ticks_per_second() < timeout ) {
 4003658:	00000d06 	br	4003690 <XferDispatchPkt+0xb0>
            tmpdata = MAXreg_rd( rHIRQ );
 400365c:	01003204 	movi	r4,200
 4003660:	4002dd00 	call	4002dd0 <MAXreg_rd>
 4003664:	e0bffd05 	stb	r2,-12(fp)
            if( tmpdata & bmHXFRDNIRQ ) {
 4003668:	e0bffd03 	ldbu	r2,-12(fp)
 400366c:	10803fcc 	andi	r2,r2,255
 4003670:	1080201c 	xori	r2,r2,128
 4003674:	10bfe004 	addi	r2,r2,-128
 4003678:	1000050e 	bge	r2,zero,4003690 <XferDispatchPkt+0xb0>
                MAXreg_wr( rHIRQ, bmHXFRDNIRQ );    //clear the interrupt
 400367c:	01402004 	movi	r5,128
 4003680:	01003204 	movi	r4,200
 4003684:	4002bdc0 	call	4002bdc <MAXreg_wr>
                rcode = 0x00;
 4003688:	e03ffb05 	stb	zero,-20(fp)
                break;
 400368c:	00000c06 	br	40036c0 <XferDispatchPkt+0xe0>
 * alt_nticks() returns the elapsed number of system clock ticks since reset.
 */

static ALT_INLINE alt_u32 ALT_ALWAYS_INLINE alt_nticks (void)
{
  return _alt_nticks;
 4003690:	d0a70a17 	ldw	r2,-25560(gp)
 BYTE nak_count = 0;

    while( 1 ) {
        MAXreg_wr( rHXFR, ( token|ep ));            //launch the transfer
        rcode = 0xff;
        while( (alt_nticks()*1000)/alt_ticks_per_second() < timeout ) {
 4003694:	0140fa04 	movi	r5,1000
 4003698:	1009883a 	mov	r4,r2
 400369c:	40043840 	call	4004384 <__mulsi3>
 40036a0:	1007883a 	mov	r3,r2
 * Obtain the system clock rate in ticks/s. 
 */

static ALT_INLINE alt_u32 ALT_ALWAYS_INLINE alt_ticks_per_second (void)
{
  return _alt_tick_rate;
 40036a4:	d0a70917 	ldw	r2,-25564(gp)
 40036a8:	100b883a 	mov	r5,r2
 40036ac:	1809883a 	mov	r4,r3
 40036b0:	40042c80 	call	40042c8 <__udivsi3>
 40036b4:	1007883a 	mov	r3,r2
 40036b8:	e0bffc17 	ldw	r2,-16(fp)
 40036bc:	18bfe736 	bltu	r3,r2,400365c <__alt_data_end+0xfc00365c>
                MAXreg_wr( rHIRQ, bmHXFRDNIRQ );    //clear the interrupt
                rcode = 0x00;
                break;
            }
        }
        if( rcode != 0x00 ) {               //exit if timeout
 40036c0:	e0bffb03 	ldbu	r2,-20(fp)
 40036c4:	10000226 	beq	r2,zero,40036d0 <XferDispatchPkt+0xf0>
            return( rcode );
 40036c8:	e0bffb03 	ldbu	r2,-20(fp)
 40036cc:	00001e06 	br	4003748 <XferDispatchPkt+0x168>
        }
        rcode = ( MAXreg_rd( rHRSL ) & 0x0f );
 40036d0:	01003e04 	movi	r4,248
 40036d4:	4002dd00 	call	4002dd0 <MAXreg_rd>
 40036d8:	108003cc 	andi	r2,r2,15
 40036dc:	e0bffb05 	stb	r2,-20(fp)
        if( rcode == hrNAK ) {
 40036e0:	e0bffb03 	ldbu	r2,-20(fp)
 40036e4:	10800118 	cmpnei	r2,r2,4
 40036e8:	1000071e 	bne	r2,zero,4003708 <XferDispatchPkt+0x128>
            nak_count++;
 40036ec:	e0bffb83 	ldbu	r2,-18(fp)
 40036f0:	10800044 	addi	r2,r2,1
 40036f4:	e0bffb85 	stb	r2,-18(fp)
            if( nak_count == USB_NAK_LIMIT ) {
 40036f8:	e0bffb83 	ldbu	r2,-18(fp)
 40036fc:	10803218 	cmpnei	r2,r2,200
 4003700:	10000b1e 	bne	r2,zero,4003730 <XferDispatchPkt+0x150>
                break;
 4003704:	00000f06 	br	4003744 <XferDispatchPkt+0x164>
            }
            else {
                continue;
            }
        }
        if( rcode == hrTIMEOUT ) {
 4003708:	e0bffb03 	ldbu	r2,-20(fp)
 400370c:	10800398 	cmpnei	r2,r2,14
 4003710:	1000091e 	bne	r2,zero,4003738 <XferDispatchPkt+0x158>
            retry_count++;
 4003714:	e0bffb43 	ldbu	r2,-19(fp)
 4003718:	10800044 	addi	r2,r2,1
 400371c:	e0bffb45 	stb	r2,-19(fp)
            if( retry_count == USB_RETRY_LIMIT ) {
 4003720:	e0bffb47 	ldb	r2,-19(fp)
 4003724:	108000d8 	cmpnei	r2,r2,3
 4003728:	10000526 	beq	r2,zero,4003740 <XferDispatchPkt+0x160>
                break;
            }
            else {
                continue;
 400372c:	00000106 	br	4003734 <XferDispatchPkt+0x154>
            nak_count++;
            if( nak_count == USB_NAK_LIMIT ) {
                break;
            }
            else {
                continue;
 4003730:	0001883a 	nop
            else {
                continue;
            }
        }
        else break;
    }//while( 1 )
 4003734:	003fbf06 	br	4003634 <__alt_data_end+0xfc003634>
            }
            else {
                continue;
            }
        }
        else break;
 4003738:	0001883a 	nop
 400373c:	00000106 	br	4003744 <XferDispatchPkt+0x164>
            }
        }
        if( rcode == hrTIMEOUT ) {
            retry_count++;
            if( retry_count == USB_RETRY_LIMIT ) {
                break;
 4003740:	0001883a 	nop
                continue;
            }
        }
        else break;
    }//while( 1 )
    return( rcode );
 4003744:	e0bffb03 	ldbu	r2,-20(fp)
}
 4003748:	e037883a 	mov	sp,fp
 400374c:	dfc00117 	ldw	ra,4(sp)
 4003750:	df000017 	ldw	fp,0(sp)
 4003754:	dec00204 	addi	sp,sp,8
 4003758:	f800283a 	ret

0400375c <XferInTransfer>:
/* IN transfer to arbitrary endpoint. Assumes PERADDR is set. Handles multiple packets if necessary. Transfers 'nbytes' bytes.
    Keep sending INs and writes data to memory area pointed by 'data' */
/* rcode 0 if no errors. rcode 01-0f is relayed from prvXferDispatchPkt(). Rcode f0 means RCVDAVIRQ error,
            fe USB xfer timeout */
BYTE XferInTransfer( BYTE addr/* not sure if it's necessary */, BYTE ep, WORD nbytes, BYTE* data, BYTE maxpktsize )
{
 400375c:	defff804 	addi	sp,sp,-32
 4003760:	dfc00715 	stw	ra,28(sp)
 4003764:	df000615 	stw	fp,24(sp)
 4003768:	df000604 	addi	fp,sp,24
 400376c:	2011883a 	mov	r8,r4
 4003770:	2809883a 	mov	r4,r5
 4003774:	3007883a 	mov	r3,r6
 4003778:	e1fffe15 	stw	r7,-8(fp)
 400377c:	e0800217 	ldw	r2,8(fp)
 4003780:	e23ffb05 	stb	r8,-20(fp)
 4003784:	e13ffc05 	stb	r4,-16(fp)
 4003788:	e0fffd0d 	sth	r3,-12(fp)
 400378c:	e0bfff05 	stb	r2,-4(fp)
 BYTE rcode;
 BYTE i;
 BYTE tmpbyte;
 BYTE pktsize;
 WORD xfrlen = 0;
 4003790:	e03ffa0d 	sth	zero,-24(fp)
    MAXreg_wr( rHCTL, devtable[ addr ].epinfo[ ep ].rcvToggle );    //set toggle value
 4003794:	e0fffb03 	ldbu	r3,-20(fp)
 4003798:	008100b4 	movhi	r2,1026
 400379c:	10a49c04 	addi	r2,r2,-28048
 40037a0:	180690fa 	slli	r3,r3,3
 40037a4:	10c5883a 	add	r2,r2,r3
 40037a8:	10c00017 	ldw	r3,0(r2)
 40037ac:	e0bffc03 	ldbu	r2,-16(fp)
 40037b0:	100490fa 	slli	r2,r2,3
 40037b4:	1885883a 	add	r2,r3,r2
 40037b8:	10800183 	ldbu	r2,6(r2)
 40037bc:	10803fcc 	andi	r2,r2,255
 40037c0:	100b883a 	mov	r5,r2
 40037c4:	01003a04 	movi	r4,232
 40037c8:	4002bdc0 	call	4002bdc <MAXreg_wr>
    while( 1 ) { // use a 'return' to exit this loop
        rcode = XferDispatchPkt( tokIN, ep );           //IN packet to EP-'endpoint'. Function takes care of NAKS.
 40037cc:	e0bffc03 	ldbu	r2,-16(fp)
 40037d0:	100b883a 	mov	r5,r2
 40037d4:	0009883a 	mov	r4,zero
 40037d8:	40035e00 	call	40035e0 <XferDispatchPkt>
 40037dc:	e0bffa85 	stb	r2,-22(fp)
        if( rcode ) {
 40037e0:	e0bffa83 	ldbu	r2,-22(fp)
 40037e4:	10000226 	beq	r2,zero,40037f0 <XferInTransfer+0x94>
            return( rcode );                            //should be 0, indicating ACK. Else return error code.
 40037e8:	e0bffa83 	ldbu	r2,-22(fp)
 40037ec:	00003a06 	br	40038d8 <XferInTransfer+0x17c>
        }
        /* check for RCVDAVIRQ and generate error if not present */
        /* the only case when absence of RCVDAVIRQ makes sense is when toggle error occurred. Need to add handling for that */
        if(( MAXreg_rd( rHIRQ ) & bmRCVDAVIRQ ) == 0 ) {
 40037f0:	01003204 	movi	r4,200
 40037f4:	4002dd00 	call	4002dd0 <MAXreg_rd>
 40037f8:	10803fcc 	andi	r2,r2,255
 40037fc:	1080010c 	andi	r2,r2,4
 4003800:	1000021e 	bne	r2,zero,400380c <XferInTransfer+0xb0>
            return ( 0xf0 );                            //receive error
 4003804:	00bffc04 	movi	r2,-16
 4003808:	00003306 	br	40038d8 <XferInTransfer+0x17c>
        }
        pktsize = MAXreg_rd( rRCVBC );                  //number of received bytes
 400380c:	01000c04 	movi	r4,48
 4003810:	4002dd00 	call	4002dd0 <MAXreg_rd>
 4003814:	e0bffac5 	stb	r2,-21(fp)
        //printf ("pktsize: %d\n", pktsize);
        data = MAXbytes_rd( rRCVFIFO, pktsize, data );
 4003818:	e0bffac3 	ldbu	r2,-21(fp)
 400381c:	e1bffe17 	ldw	r6,-8(fp)
 4003820:	100b883a 	mov	r5,r2
 4003824:	01000204 	movi	r4,8
 4003828:	4002e500 	call	4002e50 <MAXbytes_rd>
 400382c:	e0bffe15 	stw	r2,-8(fp)
        MAXreg_wr( rHIRQ, bmRCVDAVIRQ );                // Clear the IRQ & free the buffer
 4003830:	01400104 	movi	r5,4
 4003834:	01003204 	movi	r4,200
 4003838:	4002bdc0 	call	4002bdc <MAXreg_wr>
        xfrlen += pktsize;                              // add this packet's byte count to total transfer length
 400383c:	e0fffac3 	ldbu	r3,-21(fp)
 4003840:	e0bffa0b 	ldhu	r2,-24(fp)
 4003844:	1885883a 	add	r2,r3,r2
 4003848:	e0bffa0d 	sth	r2,-24(fp)
        /* The transfer is complete under two conditions:           */
        /* 1. The device sent a short packet (L.T. maxPacketSize)   */
        /* 2. 'nbytes' have been transferred.                       */
        if (( pktsize < maxpktsize ) || (xfrlen >= nbytes )) {    // have we transferred 'nbytes' bytes?
 400384c:	e0fffac3 	ldbu	r3,-21(fp)
 4003850:	e0bfff03 	ldbu	r2,-4(fp)
 4003854:	18800336 	bltu	r3,r2,4003864 <XferInTransfer+0x108>
 4003858:	e0fffa0b 	ldhu	r3,-24(fp)
 400385c:	e0bffd0b 	ldhu	r2,-12(fp)
 4003860:	18bfda36 	bltu	r3,r2,40037cc <__alt_data_end+0xfc0037cc>
            if( MAXreg_rd( rHRSL ) & bmRCVTOGRD ) {                 //save toggle value
 4003864:	01003e04 	movi	r4,248
 4003868:	4002dd00 	call	4002dd0 <MAXreg_rd>
 400386c:	10803fcc 	andi	r2,r2,255
 4003870:	1080040c 	andi	r2,r2,16
 4003874:	10000c26 	beq	r2,zero,40038a8 <XferInTransfer+0x14c>
                devtable[ addr ].epinfo[ ep ].rcvToggle = bmRCVTOG1;
 4003878:	e0fffb03 	ldbu	r3,-20(fp)
 400387c:	008100b4 	movhi	r2,1026
 4003880:	10a49c04 	addi	r2,r2,-28048
 4003884:	180690fa 	slli	r3,r3,3
 4003888:	10c5883a 	add	r2,r2,r3
 400388c:	10c00017 	ldw	r3,0(r2)
 4003890:	e0bffc03 	ldbu	r2,-16(fp)
 4003894:	100490fa 	slli	r2,r2,3
 4003898:	1885883a 	add	r2,r3,r2
 400389c:	00c00804 	movi	r3,32
 40038a0:	10c00185 	stb	r3,6(r2)
 40038a4:	00000b06 	br	40038d4 <XferInTransfer+0x178>
            }
            else {
                devtable[ addr ].epinfo[ ep ].rcvToggle = bmRCVTOG0;
 40038a8:	e0fffb03 	ldbu	r3,-20(fp)
 40038ac:	008100b4 	movhi	r2,1026
 40038b0:	10a49c04 	addi	r2,r2,-28048
 40038b4:	180690fa 	slli	r3,r3,3
 40038b8:	10c5883a 	add	r2,r2,r3
 40038bc:	10c00017 	ldw	r3,0(r2)
 40038c0:	e0bffc03 	ldbu	r2,-16(fp)
 40038c4:	100490fa 	slli	r2,r2,3
 40038c8:	1885883a 	add	r2,r3,r2
 40038cc:	00c00404 	movi	r3,16
 40038d0:	10c00185 	stb	r3,6(r2)
            }
            return( 0 );
 40038d4:	0005883a 	mov	r2,zero
        }
  }//while( 1 )
}
 40038d8:	e037883a 	mov	sp,fp
 40038dc:	dfc00117 	ldw	ra,4(sp)
 40038e0:	df000017 	ldw	fp,0(sp)
 40038e4:	dec00204 	addi	sp,sp,8
 40038e8:	f800283a 	ret

040038ec <USB_init>:
/* initialization of USB data structures */
void USB_init( void )
{
 40038ec:	defffe04 	addi	sp,sp,-8
 40038f0:	df000115 	stw	fp,4(sp)
 40038f4:	df000104 	addi	fp,sp,4
  BYTE i;
    for( i = 0; i < ( USB_NUMDEVICES + 1 ); i++ ) {
 40038f8:	e03fff05 	stb	zero,-4(fp)
 40038fc:	00001006 	br	4003940 <USB_init+0x54>
        devtable[ i ].epinfo = NULL;       //clear device table
 4003900:	e0ffff03 	ldbu	r3,-4(fp)
 4003904:	008100b4 	movhi	r2,1026
 4003908:	10a49c04 	addi	r2,r2,-28048
 400390c:	180690fa 	slli	r3,r3,3
 4003910:	10c5883a 	add	r2,r2,r3
 4003914:	10000015 	stw	zero,0(r2)
        devtable[ i ].devclass = 0;
 4003918:	e0ffff03 	ldbu	r3,-4(fp)
 400391c:	008100b4 	movhi	r2,1026
 4003920:	10a49c04 	addi	r2,r2,-28048
 4003924:	180690fa 	slli	r3,r3,3
 4003928:	10c5883a 	add	r2,r2,r3
 400392c:	10800104 	addi	r2,r2,4
 4003930:	10000005 	stb	zero,0(r2)
}
/* initialization of USB data structures */
void USB_init( void )
{
  BYTE i;
    for( i = 0; i < ( USB_NUMDEVICES + 1 ); i++ ) {
 4003934:	e0bfff03 	ldbu	r2,-4(fp)
 4003938:	10800044 	addi	r2,r2,1
 400393c:	e0bfff05 	stb	r2,-4(fp)
 4003940:	e0bfff03 	ldbu	r2,-4(fp)
 4003944:	10800270 	cmpltui	r2,r2,9
 4003948:	103fed1e 	bne	r2,zero,4003900 <__alt_data_end+0xfc003900>
        devtable[ i ].epinfo = NULL;       //clear device table
        devtable[ i ].devclass = 0;
    }
    devtable[ 0 ].epinfo = &dev0ep;  //set single ep for uninitialized device
 400394c:	008100b4 	movhi	r2,1026
 4003950:	10a49c04 	addi	r2,r2,-28048
 4003954:	d0e6f604 	addi	r3,gp,-25640
 4003958:	10c00015 	stw	r3,0(r2)
    dev0ep.MaxPktSize = 0;
 400395c:	d026f68d 	sth	zero,-25638(gp)
    dev0ep.sndToggle = bmSNDTOG0;   //set DATA0/1 toggles to 0
 4003960:	00801004 	movi	r2,64
 4003964:	d0a6f745 	stb	r2,-25635(gp)
    dev0ep.rcvToggle = bmRCVTOG0;
 4003968:	00800404 	movi	r2,16
 400396c:	d0a6f785 	stb	r2,-25634(gp)
}
 4003970:	0001883a 	nop
 4003974:	e037883a 	mov	sp,fp
 4003978:	df000017 	ldw	fp,0(sp)
 400397c:	dec00104 	addi	sp,sp,4
 4003980:	f800283a 	ret

04003984 <USB_Task>:
/* error codes: 01-0f HRSLT        */
/* ff - unsupported device         */
/* fe - no address available       */
/* fd - no client driver available */
void USB_Task( void )
{
 4003984:	deffb204 	addi	sp,sp,-312
 4003988:	dfc04d15 	stw	ra,308(sp)
 400398c:	df004c15 	stw	fp,304(sp)
 4003990:	dc004b15 	stw	r16,300(sp)
 4003994:	df004c04 	addi	fp,sp,304
 USB_DEVICE_DESCRIPTOR buf;

 BYTE rcode, tmpdata;
 BYTE i;

    switch( usb_task_state & USB_STATE_MASK ) {
 4003998:	d0a00d03 	ldbu	r2,-32716(gp)
 400399c:	10803fcc 	andi	r2,r2,255
 40039a0:	10803c0c 	andi	r2,r2,240
 40039a4:	10c00820 	cmpeqi	r3,r2,32
 40039a8:	1801121e 	bne	r3,zero,4003df4 <USB_Task+0x470>
 40039ac:	10c00848 	cmpgei	r3,r2,33
 40039b0:	1800041e 	bne	r3,zero,40039c4 <USB_Task+0x40>
 40039b4:	10000a26 	beq	r2,zero,40039e0 <USB_Task+0x5c>
 40039b8:	10800420 	cmpeqi	r2,r2,16
 40039bc:	10001b1e 	bne	r2,zero,4003a2c <USB_Task+0xa8>
        case( USB_STATE_ERROR ):
            //vTaskDelay( LED_RATE ); //stay here if error
            break;//( USB_STATE_ERROR )
        default:
            //Should never get here
            break;
 40039c0:	00017a06 	br	4003fac <USB_Task+0x628>
 USB_DEVICE_DESCRIPTOR buf;

 BYTE rcode, tmpdata;
 BYTE i;

    switch( usb_task_state & USB_STATE_MASK ) {
 40039c4:	10c01020 	cmpeqi	r3,r2,64
 40039c8:	18016f1e 	bne	r3,zero,4003f88 <USB_Task+0x604>
 40039cc:	10c03fe0 	cmpeqi	r3,r2,255
 40039d0:	18016f1e 	bne	r3,zero,4003f90 <USB_Task+0x60c>
 40039d4:	10800c20 	cmpeqi	r2,r2,48
 40039d8:	1001441e 	bne	r2,zero,4003eec <USB_Task+0x568>
        case( USB_STATE_ERROR ):
            //vTaskDelay( LED_RATE ); //stay here if error
            break;//( USB_STATE_ERROR )
        default:
            //Should never get here
            break;
 40039dc:	00017306 	br	4003fac <USB_Task+0x628>
 BYTE i;

    switch( usb_task_state & USB_STATE_MASK ) {
        /* Detached state - when nothing is connected to ( or just disconnected from) USB bus   */
        case( USB_STATE_DETACHED ):
            switch( usb_task_state ) {
 40039e0:	d0a00d03 	ldbu	r2,-32716(gp)
 40039e4:	10803fcc 	andi	r2,r2,255
 40039e8:	10c000e0 	cmpeqi	r3,r2,3
 40039ec:	1800091e 	bne	r3,zero,4003a14 <USB_Task+0x90>
 40039f0:	10c00120 	cmpeqi	r3,r2,4
 40039f4:	18000b1e 	bne	r3,zero,4003a24 <USB_Task+0xa0>
 40039f8:	10800060 	cmpeqi	r2,r2,1
 40039fc:	1000011e 	bne	r2,zero,4003a04 <USB_Task+0x80>
                    break;
                case( USB_DETACHED_SUBSTATE_ILLEGAL ):
                    /* don't know what to do yet */
                    break;
            }//switch( usb_task_state )
            break;//( USB_STATE_DETACHED ):
 4003a00:	00016a06 	br	4003fac <USB_Task+0x628>
        /* Detached state - when nothing is connected to ( or just disconnected from) USB bus   */
        case( USB_STATE_DETACHED ):
            switch( usb_task_state ) {
                case( USB_DETACHED_SUBSTATE_INITIALIZE ):
                    /* cleanup device data structures */
                    USB_init();
 4003a04:	40038ec0 	call	40038ec <USB_init>
                    usb_task_state = USB_DETACHED_SUBSTATE_WAIT_FOR_DEVICE;
 4003a08:	008000c4 	movi	r2,3
 4003a0c:	d0a00d05 	stb	r2,-32716(gp)
                    break;
 4003a10:	00000506 	br	4003a28 <USB_Task+0xa4>
                case( USB_DETACHED_SUBSTATE_WAIT_FOR_DEVICE ):
                    /* Do nothing */
                    MAXreg_wr(rHCTL,bmSAMPLEBUS);
 4003a14:	01400104 	movi	r5,4
 4003a18:	01003a04 	movi	r4,232
 4003a1c:	4002bdc0 	call	4002bdc <MAXreg_wr>
                    break;
 4003a20:	00000106 	br	4003a28 <USB_Task+0xa4>
                case( USB_DETACHED_SUBSTATE_ILLEGAL ):
                    /* don't know what to do yet */
                    break;
 4003a24:	0001883a 	nop
            }//switch( usb_task_state )
            break;//( USB_STATE_DETACHED ):
 4003a28:	00016006 	br	4003fac <USB_Task+0x628>
            /**/
        case( USB_STATE_ATTACHED ):                     //prepare for enumeration
            switch( usb_task_state ) {
 4003a2c:	d0a00d03 	ldbu	r2,-32716(gp)
 4003a30:	10803fcc 	andi	r2,r2,255
 4003a34:	10bffc04 	addi	r2,r2,-16
 4003a38:	10c001a8 	cmpgeui	r3,r2,6
 4003a3c:	1801561e 	bne	r3,zero,4003f98 <USB_Task+0x614>
 4003a40:	100690ba 	slli	r3,r2,2
 4003a44:	00810034 	movhi	r2,1024
 4003a48:	108e9604 	addi	r2,r2,14936
 4003a4c:	1885883a 	add	r2,r3,r2
 4003a50:	10800017 	ldw	r2,0(r2)
 4003a54:	1000683a 	jmp	r2
 4003a58:	04003a70 	cmpltui	r16,zero,233
 4003a5c:	04003aa8 	cmpgeui	r16,zero,234
 4003a60:	04003ae4 	muli	r16,zero,235
 4003a64:	04003b08 	cmpgei	r16,zero,236
 4003a68:	04003b48 	cmpgei	r16,zero,237
 4003a6c:	04003b5c 	xori	r16,zero,237
 * alt_nticks() returns the elapsed number of system clock ticks since reset.
 */

static ALT_INLINE alt_u32 ALT_ALWAYS_INLINE alt_nticks (void)
{
  return _alt_nticks;
 4003a70:	d0a70a17 	ldw	r2,-25560(gp)
                case( USB_STATE_ATTACHED ):
                    usb_delay = (alt_nticks()*1000)/alt_ticks_per_second() + 200;           //initial settle 200ms
 4003a74:	0140fa04 	movi	r5,1000
 4003a78:	1009883a 	mov	r4,r2
 4003a7c:	40043840 	call	4004384 <__mulsi3>
 4003a80:	1007883a 	mov	r3,r2
 * Obtain the system clock rate in ticks/s. 
 */

static ALT_INLINE alt_u32 ALT_ALWAYS_INLINE alt_ticks_per_second (void)
{
  return _alt_tick_rate;
 4003a84:	d0a70917 	ldw	r2,-25564(gp)
 4003a88:	100b883a 	mov	r5,r2
 4003a8c:	1809883a 	mov	r4,r3
 4003a90:	40042c80 	call	40042c8 <__udivsi3>
 4003a94:	10803204 	addi	r2,r2,200
 4003a98:	d0a6f915 	stw	r2,-25628(gp)
                    usb_task_state = USB_ATTACHED_SUBSTATE_SETTLE;
 4003a9c:	00800444 	movi	r2,17
 4003aa0:	d0a00d05 	stb	r2,-32716(gp)
                    break;//case( USB_STATE_ATTACHED )
 4003aa4:	0000d206 	br	4003df0 <USB_Task+0x46c>
 * alt_nticks() returns the elapsed number of system clock ticks since reset.
 */

static ALT_INLINE alt_u32 ALT_ALWAYS_INLINE alt_nticks (void)
{
  return _alt_nticks;
 4003aa8:	d0a70a17 	ldw	r2,-25560(gp)
                case( USB_ATTACHED_SUBSTATE_SETTLE ):   //waiting for settle timer to expire
                    if( (alt_nticks()*1000)/alt_ticks_per_second() > usb_delay ) {
 4003aac:	0140fa04 	movi	r5,1000
 4003ab0:	1009883a 	mov	r4,r2
 4003ab4:	40043840 	call	4004384 <__mulsi3>
 4003ab8:	1007883a 	mov	r3,r2
 * Obtain the system clock rate in ticks/s. 
 */

static ALT_INLINE alt_u32 ALT_ALWAYS_INLINE alt_ticks_per_second (void)
{
  return _alt_tick_rate;
 4003abc:	d0a70917 	ldw	r2,-25564(gp)
 4003ac0:	100b883a 	mov	r5,r2
 4003ac4:	1809883a 	mov	r4,r3
 4003ac8:	40042c80 	call	40042c8 <__udivsi3>
 4003acc:	1007883a 	mov	r3,r2
 4003ad0:	d0a6f917 	ldw	r2,-25628(gp)
 4003ad4:	10c0c32e 	bgeu	r2,r3,4003de4 <USB_Task+0x460>
                        usb_task_state = USB_ATTACHED_SUBSTATE_RESET_DEVICE;
 4003ad8:	00800484 	movi	r2,18
 4003adc:	d0a00d05 	stb	r2,-32716(gp)
                    }
                    break;//case( USB_ATTACHED_SUBSTATE_SETTLE )
 4003ae0:	0000c006 	br	4003de4 <USB_Task+0x460>
                case( USB_ATTACHED_SUBSTATE_RESET_DEVICE ):
                    MAXreg_wr( rHIRQ, bmBUSEVENTIRQ );                               //clear bus event IRQ
 4003ae4:	01400044 	movi	r5,1
 4003ae8:	01003204 	movi	r4,200
 4003aec:	4002bdc0 	call	4002bdc <MAXreg_wr>
                    MAXreg_wr( rHCTL, bmBUSRST );                                    //issue bus reset
 4003af0:	01400044 	movi	r5,1
 4003af4:	01003a04 	movi	r4,232
 4003af8:	4002bdc0 	call	4002bdc <MAXreg_wr>
                    usb_task_state = USB_ATTACHED_SUBSTATE_WAIT_RESET_COMPLETE;
 4003afc:	008004c4 	movi	r2,19
 4003b00:	d0a00d05 	stb	r2,-32716(gp)
                    break;//case( USB_ATTACHED_SUBSTATE_RESET_DEVICE )
 4003b04:	0000ba06 	br	4003df0 <USB_Task+0x46c>
                case( USB_ATTACHED_SUBSTATE_WAIT_RESET_COMPLETE ):                  //wait for bus reset and first SOF
                    if(( MAXreg_rd( rHCTL ) & bmBUSRST ) == 0 ) {
 4003b08:	01003a04 	movi	r4,232
 4003b0c:	4002dd00 	call	4002dd0 <MAXreg_rd>
 4003b10:	10803fcc 	andi	r2,r2,255
 4003b14:	1080004c 	andi	r2,r2,1
 4003b18:	1000b41e 	bne	r2,zero,4003dec <USB_Task+0x468>
                        tmpdata = MAXreg_rd( rMODE ) | bmSOFKAENAB;                 //start SOF generation
 4003b1c:	01003604 	movi	r4,216
 4003b20:	4002dd00 	call	4002dd0 <MAXreg_rd>
 4003b24:	10800214 	ori	r2,r2,8
 4003b28:	e0bfb945 	stb	r2,-283(fp)
                        MAXreg_wr( rMODE, tmpdata );
 4003b2c:	e0bfb943 	ldbu	r2,-283(fp)
 4003b30:	100b883a 	mov	r5,r2
 4003b34:	01003604 	movi	r4,216
 4003b38:	4002bdc0 	call	4002bdc <MAXreg_wr>
                        usb_task_state = USB_ATTACHED_SUBSTATE_WAIT_SOF;
 4003b3c:	00800504 	movi	r2,20
 4003b40:	d0a00d05 	stb	r2,-32716(gp)
                    }
                    break;//case( USB_ATTACHED_SUBSTATE_WAIT_RESET_COMPLETE )
 4003b44:	0000a906 	br	4003dec <USB_Task+0x468>
                case( USB_ATTACHED_SUBSTATE_WAIT_SOF ):
                    if( MAXreg_rd( rHIRQ ) | bmFRAMEIRQ ) {                     //when first SOF received we can continue
 4003b48:	01003204 	movi	r4,200
 4003b4c:	4002dd00 	call	4002dd0 <MAXreg_rd>
                        usb_task_state = USB_ATTACHED_SUBSTATE_GET_DEVICE_DESCRIPTOR_SIZE;
 4003b50:	00800544 	movi	r2,21
 4003b54:	d0a00d05 	stb	r2,-32716(gp)
                    }
                    break;//case( USB_ATTACHED_SUBSTATE_WAIT_SOF )
 4003b58:	0000a506 	br	4003df0 <USB_Task+0x46c>
                case( USB_ATTACHED_SUBSTATE_GET_DEVICE_DESCRIPTOR_SIZE ):   //send request for first 8 bytes of device descriptor
                    devtable[ 0 ].epinfo->MaxPktSize = 0x0008;             //fill max packet size with minimum allowed
 4003b5c:	008100b4 	movhi	r2,1026
 4003b60:	10a49c04 	addi	r2,r2,-28048
 4003b64:	10800017 	ldw	r2,0(r2)
 4003b68:	00c00204 	movi	r3,8
 4003b6c:	10c0008d 	sth	r3,2(r2)
                	rcode = XferGetDevDescr( 0, 0, 8, (BYTE *)&buf );       //get device descriptor size
 4003b70:	e0bfba04 	addi	r2,fp,-280
 4003b74:	d8800415 	stw	r2,16(sp)
 4003b78:	00800204 	movi	r2,8
 4003b7c:	d8800315 	stw	r2,12(sp)
 4003b80:	d8000215 	stw	zero,8(sp)
 4003b84:	00800044 	movi	r2,1
 4003b88:	d8800115 	stw	r2,4(sp)
 4003b8c:	d8000015 	stw	zero,0(sp)
 4003b90:	01c00184 	movi	r7,6
 4003b94:	01802004 	movi	r6,128
 4003b98:	000b883a 	mov	r5,zero
 4003b9c:	0009883a 	mov	r4,zero
 4003ba0:	40033380 	call	4003338 <XferCtrlReq>
 4003ba4:	e0bfb985 	stb	r2,-282(fp)
                    if( rcode == 0 ) {
 4003ba8:	e0bfb983 	ldbu	r2,-282(fp)
 4003bac:	1000861e 	bne	r2,zero,4003dc8 <USB_Task+0x444>
                        devtable[ 0 ].epinfo->MaxPktSize = buf.bMaxPacketSize0;
 4003bb0:	008100b4 	movhi	r2,1026
 4003bb4:	10a49c04 	addi	r2,r2,-28048
 4003bb8:	10800017 	ldw	r2,0(r2)
 4003bbc:	e0ffbbc3 	ldbu	r3,-273(fp)
 4003bc0:	18c03fcc 	andi	r3,r3,255
 4003bc4:	10c0008d 	sth	r3,2(r2)

                        rcode = XferGetDevDescr( 0, 0, buf.bLength, (BYTE *)&buf );     //get full descriptor
 4003bc8:	e0bfba03 	ldbu	r2,-280(fp)
 4003bcc:	10803fcc 	andi	r2,r2,255
 4003bd0:	e0ffba04 	addi	r3,fp,-280
 4003bd4:	d8c00415 	stw	r3,16(sp)
 4003bd8:	d8800315 	stw	r2,12(sp)
 4003bdc:	d8000215 	stw	zero,8(sp)
 4003be0:	00800044 	movi	r2,1
 4003be4:	d8800115 	stw	r2,4(sp)
 4003be8:	d8000015 	stw	zero,0(sp)
 4003bec:	01c00184 	movi	r7,6
 4003bf0:	01802004 	movi	r6,128
 4003bf4:	000b883a 	mov	r5,zero
 4003bf8:	0009883a 	mov	r4,zero
 4003bfc:	40033380 	call	4003338 <XferCtrlReq>
 4003c00:	e0bfb985 	stb	r2,-282(fp)
                        //pull the string descriptor for the product if it exists
            			//hackish, store this somewhere
                        if (buf.iManufacturer != 0)
 4003c04:	e0bfbd83 	ldbu	r2,-266(fp)
 4003c08:	10803fcc 	andi	r2,r2,255
 4003c0c:	10003426 	beq	r2,zero,4003ce0 <USB_Task+0x35c>
                		{
                        	USB_STRING_DESCRIPTOR strDesc;
                			rcode = XferGetStrDescr( 0, 0, 2, buf.iManufacturer, LANG_EN_US, (BYTE *)&strDesc);
 4003c10:	e0bfbd83 	ldbu	r2,-266(fp)
 4003c14:	10803fcc 	andi	r2,r2,255
 4003c18:	e0ffbe84 	addi	r3,fp,-262
 4003c1c:	d8c00415 	stw	r3,16(sp)
 4003c20:	00c00084 	movi	r3,2
 4003c24:	d8c00315 	stw	r3,12(sp)
 4003c28:	00c10244 	movi	r3,1033
 4003c2c:	d8c00215 	stw	r3,8(sp)
 4003c30:	00c000c4 	movi	r3,3
 4003c34:	d8c00115 	stw	r3,4(sp)
 4003c38:	d8800015 	stw	r2,0(sp)
 4003c3c:	01c00184 	movi	r7,6
 4003c40:	01802004 	movi	r6,128
 4003c44:	000b883a 	mov	r5,zero
 4003c48:	0009883a 	mov	r4,zero
 4003c4c:	40033380 	call	4003338 <XferCtrlReq>
 4003c50:	e0bfb985 	stb	r2,-282(fp)
                			rcode = XferGetStrDescr( 0, 0, strDesc.bLength, buf.iManufacturer, LANG_EN_US, (BYTE *)&strDesc);
 4003c54:	e0bfbd83 	ldbu	r2,-266(fp)
 4003c58:	10803fcc 	andi	r2,r2,255
 4003c5c:	e0ffbe83 	ldbu	r3,-262(fp)
 4003c60:	18c03fcc 	andi	r3,r3,255
 4003c64:	e13fbe84 	addi	r4,fp,-262
 4003c68:	d9000415 	stw	r4,16(sp)
 4003c6c:	d8c00315 	stw	r3,12(sp)
 4003c70:	00c10244 	movi	r3,1033
 4003c74:	d8c00215 	stw	r3,8(sp)
 4003c78:	00c000c4 	movi	r3,3
 4003c7c:	d8c00115 	stw	r3,4(sp)
 4003c80:	d8800015 	stw	r2,0(sp)
 4003c84:	01c00184 	movi	r7,6
 4003c88:	01802004 	movi	r6,128
 4003c8c:	000b883a 	mov	r5,zero
 4003c90:	0009883a 	mov	r4,zero
 4003c94:	40033380 	call	4003338 <XferCtrlReq>
 4003c98:	e0bfb985 	stb	r2,-282(fp)
                			printf ("Mfgr string(%i): %s\n", buf.iManufacturer, ConvUTF8ToStr(strDesc.bString, (strDesc.bLength>>1)-1));
 4003c9c:	e0bfbd83 	ldbu	r2,-266(fp)
 4003ca0:	14003fcc 	andi	r16,r2,255
 4003ca4:	e0bfbe83 	ldbu	r2,-262(fp)
 4003ca8:	10803fcc 	andi	r2,r2,255
 4003cac:	1004d07a 	srli	r2,r2,1
 4003cb0:	10bfffc4 	addi	r2,r2,-1
 4003cb4:	10c03fcc 	andi	r3,r2,255
 4003cb8:	e0bfbe84 	addi	r2,fp,-262
 4003cbc:	10800084 	addi	r2,r2,2
 4003cc0:	180b883a 	mov	r5,r3
 4003cc4:	1009883a 	mov	r4,r2
 4003cc8:	400414c0 	call	400414c <ConvUTF8ToStr>
 4003ccc:	100d883a 	mov	r6,r2
 4003cd0:	800b883a 	mov	r5,r16
 4003cd4:	01010074 	movhi	r4,1025
 4003cd8:	21110a04 	addi	r4,r4,17448
 4003cdc:	40045040 	call	4004504 <printf>
                		}
                		if (buf.iProduct != 0)
 4003ce0:	e0bfbdc3 	ldbu	r2,-265(fp)
 4003ce4:	10803fcc 	andi	r2,r2,255
 4003ce8:	10003426 	beq	r2,zero,4003dbc <USB_Task+0x438>
                		{
                        	USB_STRING_DESCRIPTOR strDesc;
                        	rcode = XferGetStrDescr( 0, 0, 2, buf.iProduct, LANG_EN_US, (BYTE *)&strDesc);
 4003cec:	e0bfbdc3 	ldbu	r2,-265(fp)
 4003cf0:	10803fcc 	andi	r2,r2,255
 4003cf4:	e0ffbe84 	addi	r3,fp,-262
 4003cf8:	d8c00415 	stw	r3,16(sp)
 4003cfc:	00c00084 	movi	r3,2
 4003d00:	d8c00315 	stw	r3,12(sp)
 4003d04:	00c10244 	movi	r3,1033
 4003d08:	d8c00215 	stw	r3,8(sp)
 4003d0c:	00c000c4 	movi	r3,3
 4003d10:	d8c00115 	stw	r3,4(sp)
 4003d14:	d8800015 	stw	r2,0(sp)
 4003d18:	01c00184 	movi	r7,6
 4003d1c:	01802004 	movi	r6,128
 4003d20:	000b883a 	mov	r5,zero
 4003d24:	0009883a 	mov	r4,zero
 4003d28:	40033380 	call	4003338 <XferCtrlReq>
 4003d2c:	e0bfb985 	stb	r2,-282(fp)
                			rcode = XferGetStrDescr( 0, 0, strDesc.bLength, buf.iProduct, LANG_EN_US, (BYTE *)&strDesc);
 4003d30:	e0bfbdc3 	ldbu	r2,-265(fp)
 4003d34:	10803fcc 	andi	r2,r2,255
 4003d38:	e0ffbe83 	ldbu	r3,-262(fp)
 4003d3c:	18c03fcc 	andi	r3,r3,255
 4003d40:	e13fbe84 	addi	r4,fp,-262
 4003d44:	d9000415 	stw	r4,16(sp)
 4003d48:	d8c00315 	stw	r3,12(sp)
 4003d4c:	00c10244 	movi	r3,1033
 4003d50:	d8c00215 	stw	r3,8(sp)
 4003d54:	00c000c4 	movi	r3,3
 4003d58:	d8c00115 	stw	r3,4(sp)
 4003d5c:	d8800015 	stw	r2,0(sp)
 4003d60:	01c00184 	movi	r7,6
 4003d64:	01802004 	movi	r6,128
 4003d68:	000b883a 	mov	r5,zero
 4003d6c:	0009883a 	mov	r4,zero
 4003d70:	40033380 	call	4003338 <XferCtrlReq>
 4003d74:	e0bfb985 	stb	r2,-282(fp)
                			printf ("Product string(%i): %s\n", buf.iProduct, ConvUTF8ToStr(strDesc.bString, (strDesc.bLength>>1)-1));
 4003d78:	e0bfbdc3 	ldbu	r2,-265(fp)
 4003d7c:	14003fcc 	andi	r16,r2,255
 4003d80:	e0bfbe83 	ldbu	r2,-262(fp)
 4003d84:	10803fcc 	andi	r2,r2,255
 4003d88:	1004d07a 	srli	r2,r2,1
 4003d8c:	10bfffc4 	addi	r2,r2,-1
 4003d90:	10c03fcc 	andi	r3,r2,255
 4003d94:	e0bfbe84 	addi	r2,fp,-262
 4003d98:	10800084 	addi	r2,r2,2
 4003d9c:	180b883a 	mov	r5,r3
 4003da0:	1009883a 	mov	r4,r2
 4003da4:	400414c0 	call	400414c <ConvUTF8ToStr>
 4003da8:	100d883a 	mov	r6,r2
 4003dac:	800b883a 	mov	r5,r16
 4003db0:	01010074 	movhi	r4,1025
 4003db4:	21111004 	addi	r4,r4,17472
 4003db8:	40045040 	call	4004504 <printf>
                		}
                        usb_task_state = USB_STATE_ADDRESSING;
 4003dbc:	00800804 	movi	r2,32
 4003dc0:	d0a00d05 	stb	r2,-32716(gp)
                    else {
                        usb_error = rcode;
                        last_usb_task_state = usb_task_state;
                        usb_task_state = USB_STATE_ERROR;
                    }
                    break;//case( USB_ATTACHED_SUBSTATE_GET_DEVICE_DESCRIPTOR_SIZE ):
 4003dc4:	00000a06 	br	4003df0 <USB_Task+0x46c>
                		}
                        usb_task_state = USB_STATE_ADDRESSING;

                    }
                    else {
                        usb_error = rcode;
 4003dc8:	e0bfb983 	ldbu	r2,-282(fp)
 4003dcc:	d0a6fa45 	stb	r2,-25623(gp)
                        last_usb_task_state = usb_task_state;
 4003dd0:	d0a00d03 	ldbu	r2,-32716(gp)
 4003dd4:	d0a6f805 	stb	r2,-25632(gp)
                        usb_task_state = USB_STATE_ERROR;
 4003dd8:	00bfffc4 	movi	r2,-1
 4003ddc:	d0a00d05 	stb	r2,-32716(gp)
                    }
                    break;//case( USB_ATTACHED_SUBSTATE_GET_DEVICE_DESCRIPTOR_SIZE ):
 4003de0:	00000306 	br	4003df0 <USB_Task+0x46c>
                    break;//case( USB_STATE_ATTACHED )
                case( USB_ATTACHED_SUBSTATE_SETTLE ):   //waiting for settle timer to expire
                    if( (alt_nticks()*1000)/alt_ticks_per_second() > usb_delay ) {
                        usb_task_state = USB_ATTACHED_SUBSTATE_RESET_DEVICE;
                    }
                    break;//case( USB_ATTACHED_SUBSTATE_SETTLE )
 4003de4:	0001883a 	nop
 4003de8:	00006b06 	br	4003f98 <USB_Task+0x614>
                    if(( MAXreg_rd( rHCTL ) & bmBUSRST ) == 0 ) {
                        tmpdata = MAXreg_rd( rMODE ) | bmSOFKAENAB;                 //start SOF generation
                        MAXreg_wr( rMODE, tmpdata );
                        usb_task_state = USB_ATTACHED_SUBSTATE_WAIT_SOF;
                    }
                    break;//case( USB_ATTACHED_SUBSTATE_WAIT_RESET_COMPLETE )
 4003dec:	0001883a 	nop
                        last_usb_task_state = usb_task_state;
                        usb_task_state = USB_STATE_ERROR;
                    }
                    break;//case( USB_ATTACHED_SUBSTATE_GET_DEVICE_DESCRIPTOR_SIZE ):
            }//switch( usb_task_state )
            break;//case ( USB_STATE_ATTACHED )
 4003df0:	00006906 	br	4003f98 <USB_Task+0x614>
        case( USB_STATE_ADDRESSING ):   //give device an address
            for( i = 1; i < USB_NUMDEVICES; i++ ) {
 4003df4:	00800044 	movi	r2,1
 4003df8:	e0bfb905 	stb	r2,-284(fp)
 4003dfc:	00002d06 	br	4003eb4 <USB_Task+0x530>
                if( devtable[ i ].epinfo == NULL ) {
 4003e00:	e0ffb903 	ldbu	r3,-284(fp)
 4003e04:	008100b4 	movhi	r2,1026
 4003e08:	10a49c04 	addi	r2,r2,-28048
 4003e0c:	180690fa 	slli	r3,r3,3
 4003e10:	10c5883a 	add	r2,r2,r3
 4003e14:	10800017 	ldw	r2,0(r2)
 4003e18:	1000231e 	bne	r2,zero,4003ea8 <USB_Task+0x524>
                    devtable[ i ].epinfo = devtable[ 0 ].epinfo;        //set correct MaxPktSize
 4003e1c:	e13fb903 	ldbu	r4,-284(fp)
 4003e20:	008100b4 	movhi	r2,1026
 4003e24:	10a49c04 	addi	r2,r2,-28048
 4003e28:	10c00017 	ldw	r3,0(r2)
 4003e2c:	008100b4 	movhi	r2,1026
 4003e30:	10a49c04 	addi	r2,r2,-28048
 4003e34:	200890fa 	slli	r4,r4,3
 4003e38:	1105883a 	add	r2,r2,r4
 4003e3c:	10c00015 	stw	r3,0(r2)
                    //devtable[ i ].epinfo->MaxPktSize = devtable[ 0 ].epinfo->MaxPktSize;  //copy uninitialized device record to have correct MaxPktSize
                    rcode = XferSetAddr( 0, 0, i );
 4003e40:	e0bfb903 	ldbu	r2,-284(fp)
 4003e44:	d8000415 	stw	zero,16(sp)
 4003e48:	d8000315 	stw	zero,12(sp)
 4003e4c:	d8000215 	stw	zero,8(sp)
 4003e50:	d8000115 	stw	zero,4(sp)
 4003e54:	d8800015 	stw	r2,0(sp)
 4003e58:	01c00144 	movi	r7,5
 4003e5c:	000d883a 	mov	r6,zero
 4003e60:	000b883a 	mov	r5,zero
 4003e64:	0009883a 	mov	r4,zero
 4003e68:	40033380 	call	4003338 <XferCtrlReq>
 4003e6c:	e0bfb985 	stb	r2,-282(fp)
                    if( rcode == 0 ) {
 4003e70:	e0bfb983 	ldbu	r2,-282(fp)
 4003e74:	1000051e 	bne	r2,zero,4003e8c <USB_Task+0x508>
                        tmp_addr = i;
 4003e78:	e0bfb903 	ldbu	r2,-284(fp)
 4003e7c:	d0a6fa05 	stb	r2,-25624(gp)
                        usb_task_state = USB_STATE_CONFIGURING;
 4003e80:	00800c04 	movi	r2,48
 4003e84:	d0a00d05 	stb	r2,-32716(gp)
                    else {
                        usb_error = rcode;          //set address error
                        last_usb_task_state = usb_task_state;
                        usb_task_state = USB_STATE_ERROR;
                    }
                    break;  //break if address assigned or error occurred during address assignment attempt
 4003e88:	00000d06 	br	4003ec0 <USB_Task+0x53c>
                    if( rcode == 0 ) {
                        tmp_addr = i;
                        usb_task_state = USB_STATE_CONFIGURING;
                    }
                    else {
                        usb_error = rcode;          //set address error
 4003e8c:	e0bfb983 	ldbu	r2,-282(fp)
 4003e90:	d0a6fa45 	stb	r2,-25623(gp)
                        last_usb_task_state = usb_task_state;
 4003e94:	d0a00d03 	ldbu	r2,-32716(gp)
 4003e98:	d0a6f805 	stb	r2,-25632(gp)
                        usb_task_state = USB_STATE_ERROR;
 4003e9c:	00bfffc4 	movi	r2,-1
 4003ea0:	d0a00d05 	stb	r2,-32716(gp)
                    }
                    break;  //break if address assigned or error occurred during address assignment attempt
 4003ea4:	00000606 	br	4003ec0 <USB_Task+0x53c>
                    }
                    break;//case( USB_ATTACHED_SUBSTATE_GET_DEVICE_DESCRIPTOR_SIZE ):
            }//switch( usb_task_state )
            break;//case ( USB_STATE_ATTACHED )
        case( USB_STATE_ADDRESSING ):   //give device an address
            for( i = 1; i < USB_NUMDEVICES; i++ ) {
 4003ea8:	e0bfb903 	ldbu	r2,-284(fp)
 4003eac:	10800044 	addi	r2,r2,1
 4003eb0:	e0bfb905 	stb	r2,-284(fp)
 4003eb4:	e0bfb903 	ldbu	r2,-284(fp)
 4003eb8:	10800230 	cmpltui	r2,r2,8
 4003ebc:	103fd01e 	bne	r2,zero,4003e00 <__alt_data_end+0xfc003e00>
                        usb_task_state = USB_STATE_ERROR;
                    }
                    break;  //break if address assigned or error occurred during address assignment attempt
                }
            }
            if( usb_task_state == USB_STATE_ADDRESSING ) {
 4003ec0:	d0a00d03 	ldbu	r2,-32716(gp)
 4003ec4:	10803fcc 	andi	r2,r2,255
 4003ec8:	10800818 	cmpnei	r2,r2,32
 4003ecc:	1000341e 	bne	r2,zero,4003fa0 <USB_Task+0x61c>
                usb_error = 0xfe;
 4003ed0:	00bfff84 	movi	r2,-2
 4003ed4:	d0a6fa45 	stb	r2,-25623(gp)
                last_usb_task_state = usb_task_state;
 4003ed8:	d0a00d03 	ldbu	r2,-32716(gp)
 4003edc:	d0a6f805 	stb	r2,-25632(gp)
                usb_task_state = USB_STATE_ERROR;
 4003ee0:	00bfffc4 	movi	r2,-1
 4003ee4:	d0a00d05 	stb	r2,-32716(gp)
            }
            break;//case ( USB_STATE_ADDRESSING )
 4003ee8:	00002d06 	br	4003fa0 <USB_Task+0x61c>
        case( USB_STATE_CONFIGURING ):              //checking for driver
